(lp0
(S'cppflags'
p1
ccopy_reg
_reconstructor
p2
(cino.utils
SpaceList
p3
c__builtin__
list
p4
(lp5
S'-mmcu=atmega328p'
p6
aS'-DF_CPU=16000000L'
p7
aS'-DARDUINO=160'
p8
aS'-I/usr/local/share/arduino/hardware/arduino/avr/cores/arduino'
p9
aS'-ffunction-sections'
p10
aS'-fdata-sections'
p11
aS'-g'
p12
aS'-Os'
p13
aS'-w'
p14
aS'-I/usr/local/share/arduino/hardware/arduino/avr/variants/standard'
p15
aS'-I/usr/local/share/arduino/hardware/arduino/avr/cores/arduino'
p16
atp17
Rp18
tp19
a(S'arduino_variants_dir'
p20
S'/usr/local/share/arduino/hardware/arduino/avr/variants'
p21
tp22
a(S'version.txt'
p23
S'/usr/local/share/arduino/lib/version.txt'
p24
tp25
a(S'used_libs'
p26
(lp27
S'/usr/local/share/arduino/hardware/arduino/avr/cores/arduino'
p28
atp29
a(S'cxx'
p30
S'/usr/local/share/arduino/hardware/tools/avr/bin/avr-g++'
p31
tp32
a(S'make'
p33
S'/usr/bin/make'
p34
tp35
a(S'build_dir'
p36
S'.build/uno'
p37
tp38
a(S'arduino_core_dir'
p39
g28
tp40
a(S'boards.txt'
p41
(lp42
S'/usr/local/share/arduino/hardware/arduino/sam/boards.txt'
p43
aS'/usr/local/share/arduino/hardware/arduino/avr/boards.txt'
p44
atp45
a(S'cxxflags'
p46
g2
(g3
g4
(lp47
S'-fno-exceptions'
p48
atp49
Rp50
tp51
a(S'cc'
p52
S'/usr/local/share/arduino/hardware/tools/avr/bin/avr-gcc'
p53
tp54
a(S'deps'
p55
g2
(g3
g4
(lp56
S'.build/uno/src/dependencies.d'
p57
aS'.build/uno/arduino/dependencies.d'
p58
atp59
Rp60
tp61
a(S'ar'
p62
S'/usr/local/share/arduino/hardware/tools/avr/bin/avr-ar'
p63
tp64
a(S'names'
p65
(dp66
S'cpp'
p67
S'%s.cpp'
p68
sS'obj'
p69
S'%s.o'
p70
sS'deps'
p71
S'%s.d'
p72
sS'lib'
p73
S'lib%s.a'
p74
stp75
a(S'cflags'
p76
g2
(g3
g4
(lp77
tp78
Rp79
tp80
a(S'arduino_libraries_dir'
p81
S'/usr/local/share/arduino/libraries'
p82
tp83
a(S'arduino_lib_version'
p84
g2
(cino.environment
Version
p85
c__builtin__
tuple
p86
(I1
I6
I0
tp87
tp88
Rp89
tp90
a(S'objcopy'
p91
S'/usr/local/share/arduino/hardware/tools/avr/bin/avr-objcopy'
p92
tp93
a(S'board_models'
p94
cino.environment
BoardModels
p95
((lp96
(lp97
S'arduino_due_x_dbg'
p98
a(dp99
S'name'
p100
S'Arduino Due (Programming Port)'
p101
sS'vid'
p102
(dp103
S'0'
p104
S'0x2341'
p105
ssS'pid'
p106
(dp107
g104
S'0x003d'
p108
ssS'upload'
p109
(dp110
S'protocol'
p111
S'sam-ba'
p112
sS'wait_for_upload_port'
p113
S'false'
p114
sS'tool'
p115
S'bossac'
p116
sS'native_usb'
p117
S'false'
p118
sS'maximum_size'
p119
S'524288'
p120
sS'use_1200bps_touch'
p121
S'true'
p122
ssS'build'
p123
(dp124
S'core'
p125
S'arduino'
p126
sS'f_cpu'
p127
S'84000000L'
p128
sS'vid'
p129
S'0x2341'
p130
sS'pid'
p131
S'0x003e'
p132
sS'variant'
p133
S'arduino_due_x'
p134
sS'extra_flags'
p135
S'-D__SAM3X8E__ -mthumb {build.usb_flags}'
p136
sS'variant_system_lib'
p137
S'libsam_sam3x8e_gcc_rel.a'
p138
sS'usb_product'
p139
S'"Arduino Due"'
p140
sS'board'
p141
S'SAM_DUE'
p142
sS'ldscript'
p143
S'linker_scripts/gcc/flash.ld'
p144
sS'mcu'
p145
S'cortex-m3'
p146
ssS'_coredir'
p147
S'/usr/local/share/arduino/hardware/arduino/sam'
p148
saa(lp149
S'arduino_due_x'
p150
a(dp151
S'name'
p152
S'Arduino Due (Native USB Port)'
p153
sS'vid'
p154
(dp155
g104
S'0x2341'
p156
ssS'pid'
p157
(dp158
g104
S'0x003e'
p159
ssS'upload'
p160
(dp161
S'protocol'
p162
S'sam-ba'
p163
sS'wait_for_upload_port'
p164
S'true'
p165
sS'tool'
p166
S'bossac'
p167
sS'native_usb'
p168
S'true'
p169
sS'maximum_size'
p170
S'524288'
p171
sS'use_1200bps_touch'
p172
S'true'
p173
ssS'build'
p174
(dp175
S'core'
p176
S'arduino'
p177
sS'f_cpu'
p178
S'84000000L'
p179
sS'vid'
p180
S'0x2341'
p181
sS'pid'
p182
S'0x003e'
p183
sS'variant'
p184
S'arduino_due_x'
p185
sS'extra_flags'
p186
S'-D__SAM3X8E__ -mthumb {build.usb_flags}'
p187
sS'variant_system_lib'
p188
S'libsam_sam3x8e_gcc_rel.a'
p189
sS'usb_product'
p190
S'"Arduino Due"'
p191
sS'board'
p192
S'SAM_DUE'
p193
sS'ldscript'
p194
S'linker_scripts/gcc/flash.ld'
p195
sS'mcu'
p196
S'cortex-m3'
p197
ssg147
S'/usr/local/share/arduino/hardware/arduino/sam'
p198
saa(lp199
S'menu'
p200
a(dp201
S'cpu'
p202
S'Processor'
p203
sg147
S'/usr/local/share/arduino/hardware/arduino/avr'
p204
saa(lp205
S'yun'
p206
a(dp207
S'name'
p208
S'Arduino Y\xc3\xban'
p209
sS'vid'
p210
(dp211
S'1'
p212
S'0x2341'
p213
sg104
S'0x2341'
p214
ssS'pid'
p215
(dp216
g212
S'0x8041'
p217
sg104
S'0x0041'
p218
ssS'upload'
p219
(dp220
S'protocol'
p221
S'avr109'
p222
sS'disable_flushing'
p223
S'true'
p224
sS'tool'
p225
S'avrdude'
p226
sS'maximum_data_size'
p227
S'2560'
p228
sS'via_ssh'
p229
S'true'
p230
sS'maximum_size'
p231
S'28672'
p232
sS'use_1200bps_touch'
p233
S'true'
p234
sS'speed'
p235
S'57600'
p236
sS'wait_for_upload_port'
p237
S'true'
p238
ssS'build'
p239
(dp240
S'core'
p241
S'arduino'
p242
sS'f_cpu'
p243
S'16000000L'
p244
sS'vid'
p245
S'0x2341'
p246
sS'usb_product'
p247
S'"Arduino Yun"'
p248
sS'pid'
p249
S'0x8041'
p250
sS'extra_flags'
p251
S'{build.usb_flags}'
p252
sS'board'
p253
S'AVR_YUN'
p254
sS'mcu'
p255
S'atmega32u4'
p256
sS'variant'
p257
S'yun'
p258
ssg147
S'/usr/local/share/arduino/hardware/arduino/avr'
p259
sS'bootloader'
p260
(dp261
S'extended_fuses'
p262
S'0xfb'
p263
sS'high_fuses'
p264
S'0xd8'
p265
sS'low_fuses'
p266
S'0xff'
p267
sS'lock_bits'
p268
S'0x2F'
p269
sS'tool'
p270
S'avrdude'
p271
sS'file'
p272
S'caterina/Caterina-Yun.hex'
p273
sS'unlock_bits'
p274
S'0x3F'
p275
ssaa(lp276
S'uno'
p277
a(dp278
S'name'
p279
S'Arduino Uno'
p280
sS'vid'
p281
(dp282
g212
S'0x2341'
p283
sg104
S'0x2341'
p284
ssS'pid'
p285
(dp286
g212
S'0x0001'
p287
sg104
S'0x0043'
p288
ssS'upload'
p289
(dp290
S'speed'
p291
S'115200'
p292
sS'tool'
p293
S'avrdude'
p294
sS'protocol'
p295
S'arduino'
p296
sS'maximum_size'
p297
S'32256'
p298
sS'maximum_data_size'
p299
S'2048'
p300
ssS'build'
p301
(dp302
S'core'
p303
S'arduino'
p304
sS'mcu'
p305
S'atmega328p'
p306
sS'f_cpu'
p307
S'16000000L'
p308
sS'board'
p309
S'AVR_UNO'
p310
sS'variant'
p311
S'standard'
p312
ssg147
S'/usr/local/share/arduino/hardware/arduino/avr'
p313
sS'bootloader'
p314
(dp315
S'extended_fuses'
p316
S'0x05'
p317
sS'high_fuses'
p318
S'0xDE'
p319
sS'low_fuses'
p320
S'0xFF'
p321
sS'lock_bits'
p322
S'0x0F'
p323
sS'tool'
p324
S'avrdude'
p325
sS'file'
p326
S'optiboot/optiboot_atmega328.hex'
p327
sS'unlock_bits'
p328
S'0x3F'
p329
ssaa(lp330
S'diecimila'
p331
a(dp332
S'name'
p333
S'Arduino Duemilanove or Diecimila'
p334
sS'menu'
p335
(dp336
S'cpu'
p337
(dp338
S'atmega168'
p339
(dp340
S'bootloader'
p341
(dp342
S'extended_fuses'
p343
S'0x00'
p344
sS'high_fuses'
p345
S'0xdd'
p346
sS'file'
p347
S'atmega/ATmegaBOOT_168_diecimila.hex'
p348
ssS'upload'
p349
(dp350
S'maximum_size'
p351
S'14336'
p352
sS'speed'
p353
S'19200'
p354
sS'maximum_data_size'
p355
S'1024'
p356
ssS'_'
p357
S'ATmega168'
p358
sS'build'
p359
(dp360
S'mcu'
p361
S'atmega168'
p362
sssS'atmega328'
p363
(dp364
S'bootloader'
p365
(dp366
S'extended_fuses'
p367
S'0x05'
p368
sS'high_fuses'
p369
S'0xDA'
p370
sS'file'
p371
S'atmega/ATmegaBOOT_168_atmega328.hex'
p372
ssS'upload'
p373
(dp374
S'maximum_size'
p375
S'30720'
p376
sS'speed'
p377
S'57600'
p378
sS'maximum_data_size'
p379
S'2048'
p380
ssg357
S'ATmega328'
p381
sS'build'
p382
(dp383
S'mcu'
p384
S'atmega328p'
p385
sssssS'upload'
p386
(dp387
S'tool'
p388
S'avrdude'
p389
sS'protocol'
p390
S'arduino'
p391
ssS'build'
p392
(dp393
S'core'
p394
S'arduino'
p395
sS'f_cpu'
p396
S'16000000L'
p397
sS'board'
p398
S'AVR_DUEMILANOVE'
p399
sS'variant'
p400
S'standard'
p401
ssg147
S'/usr/local/share/arduino/hardware/arduino/avr'
p402
sS'bootloader'
p403
(dp404
S'low_fuses'
p405
S'0xFF'
p406
sS'lock_bits'
p407
S'0x0F'
p408
sS'tool'
p409
S'avrdude'
p410
sS'unlock_bits'
p411
S'0x3F'
p412
ssaa(lp413
S'nano'
p414
a(dp415
S'name'
p416
S'Arduino Nano'
p417
sS'menu'
p418
(dp419
S'cpu'
p420
(dp421
S'atmega168'
p422
(dp423
S'bootloader'
p424
(dp425
S'low_fuses'
p426
S'0xff'
p427
sS'extended_fuses'
p428
S'0x00'
p429
sS'high_fuses'
p430
S'0xdd'
p431
sS'file'
p432
S'atmega/ATmegaBOOT_168_diecimila.hex'
p433
ssS'upload'
p434
(dp435
S'maximum_size'
p436
S'14336'
p437
sS'speed'
p438
S'19200'
p439
sS'maximum_data_size'
p440
S'1024'
p441
ssg357
S'ATmega168'
p442
sS'build'
p443
(dp444
S'mcu'
p445
S'atmega168'
p446
sssS'atmega328'
p447
(dp448
S'bootloader'
p449
(dp450
S'low_fuses'
p451
S'0xFF'
p452
sS'extended_fuses'
p453
S'0x05'
p454
sS'high_fuses'
p455
S'0xDA'
p456
sS'file'
p457
S'atmega/ATmegaBOOT_168_atmega328.hex'
p458
ssS'upload'
p459
(dp460
S'maximum_size'
p461
S'30720'
p462
sS'speed'
p463
S'57600'
p464
sS'maximum_data_size'
p465
S'2048'
p466
ssg357
S'ATmega328'
p467
sS'build'
p468
(dp469
S'mcu'
p470
S'atmega328p'
p471
sssssS'upload'
p472
(dp473
S'tool'
p474
S'avrdude'
p475
sS'protocol'
p476
S'arduino'
p477
ssS'build'
p478
(dp479
S'core'
p480
S'arduino'
p481
sS'f_cpu'
p482
S'16000000L'
p483
sS'board'
p484
S'AVR_NANO'
p485
sS'variant'
p486
S'eightanaloginputs'
p487
ssg147
S'/usr/local/share/arduino/hardware/arduino/avr'
p488
sS'bootloader'
p489
(dp490
S'lock_bits'
p491
S'0x0F'
p492
sS'tool'
p493
S'avrdude'
p494
sS'unlock_bits'
p495
S'0x3F'
p496
ssaa(lp497
S'mega'
p498
a(dp499
S'name'
p500
S'Arduino Mega or Mega 2560'
p501
sS'vid'
p502
(dp503
g212
S'0x2341'
p504
sg104
S'0x2341'
p505
ssS'menu'
p506
(dp507
S'cpu'
p508
(dp509
S'atmega1280'
p510
(dp511
S'bootloader'
p512
(dp513
S'extended_fuses'
p514
S'0xF5'
p515
sS'high_fuses'
p516
S'0xDA'
p517
sS'file'
p518
S'atmega/ATmegaBOOT_168_atmega1280.hex'
p519
ssS'upload'
p520
(dp521
S'speed'
p522
S'57600'
p523
sS'maximum_size'
p524
S'126976'
p525
sS'protocol'
p526
S'arduino'
p527
ssg357
S'ATmega1280'
p528
sS'build'
p529
(dp530
S'mcu'
p531
S'atmega1280'
p532
sS'board'
p533
S'AVR_MEGA'
p534
sssS'atmega2560'
p535
(dp536
S'bootloader'
p537
(dp538
S'extended_fuses'
p539
S'0xFD'
p540
sS'high_fuses'
p541
S'0xD8'
p542
sS'file'
p543
S'stk500v2/stk500boot_v2_mega2560.hex'
p544
ssS'upload'
p545
(dp546
S'speed'
p547
S'115200'
p548
sS'maximum_size'
p549
S'253952'
p550
sS'protocol'
p551
S'wiring'
p552
ssg357
S'ATmega2560 (Mega 2560)'
p553
sS'build'
p554
(dp555
S'mcu'
p556
S'atmega2560'
p557
sS'board'
p558
S'AVR_MEGA2560'
p559
sssssS'pid'
p560
(dp561
g212
S'0x0042'
p562
sg104
S'0x0010'
p563
ssS'upload'
p564
(dp565
S'tool'
p566
S'avrdude'
p567
sS'maximum_data_size'
p568
S'8192'
p569
ssS'build'
p570
(dp571
S'core'
p572
S'arduino'
p573
sS'f_cpu'
p574
S'16000000L'
p575
sS'board'
p576
S'AVR_MEGA2560'
p577
sS'variant'
p578
S'mega'
p579
ssg147
S'/usr/local/share/arduino/hardware/arduino/avr'
p580
sS'bootloader'
p581
(dp582
S'low_fuses'
p583
S'0xFF'
p584
sS'lock_bits'
p585
S'0x0F'
p586
sS'tool'
p587
S'avrdude'
p588
sS'unlock_bits'
p589
S'0x3F'
p590
ssaa(lp591
S'megaADK'
p592
a(dp593
S'name'
p594
S'Arduino Mega ADK'
p595
sS'vid'
p596
(dp597
g212
S'0x2341'
p598
sg104
S'0x2341'
p599
ssS'pid'
p600
(dp601
g212
S'0x0044'
p602
sg104
S'0x003f'
p603
ssS'upload'
p604
(dp605
S'speed'
p606
S'115200'
p607
sS'tool'
p608
S'avrdude'
p609
sS'protocol'
p610
S'wiring'
p611
sS'maximum_size'
p612
S'253952'
p613
sS'maximum_data_size'
p614
S'8192'
p615
ssS'build'
p616
(dp617
S'core'
p618
S'arduino'
p619
sS'mcu'
p620
S'atmega2560'
p621
sS'f_cpu'
p622
S'16000000L'
p623
sS'board'
p624
S'AVR_ADK'
p625
sS'variant'
p626
S'mega'
p627
ssg147
S'/usr/local/share/arduino/hardware/arduino/avr'
p628
sS'bootloader'
p629
(dp630
S'extended_fuses'
p631
S'0xFD'
p632
sS'high_fuses'
p633
S'0xD8'
p634
sS'low_fuses'
p635
S'0xFF'
p636
sS'lock_bits'
p637
S'0x0F'
p638
sS'tool'
p639
S'avrdude'
p640
sS'file'
p641
S'stk500v2/stk500boot_v2_mega2560.hex'
p642
sS'unlock_bits'
p643
S'0x3F'
p644
ssaa(lp645
S'leonardo'
p646
a(dp647
S'name'
p648
S'Arduino Leonardo'
p649
sS'vid'
p650
(dp651
g212
S'0x2341'
p652
sg104
S'0x2341'
p653
ssS'pid'
p654
(dp655
g212
S'0x8036'
p656
sg104
S'0x0036'
p657
ssS'upload'
p658
(dp659
S'protocol'
p660
S'avr109'
p661
sS'disable_flushing'
p662
S'true'
p663
sS'tool'
p664
S'avrdude'
p665
sS'maximum_data_size'
p666
S'2560'
p667
sS'maximum_size'
p668
S'28672'
p669
sS'use_1200bps_touch'
p670
S'true'
p671
sS'speed'
p672
S'57600'
p673
sS'wait_for_upload_port'
p674
S'true'
p675
ssS'build'
p676
(dp677
S'core'
p678
S'arduino'
p679
sS'f_cpu'
p680
S'16000000L'
p681
sS'vid'
p682
S'0x2341'
p683
sS'usb_product'
p684
S'"Arduino Leonardo"'
p685
sS'pid'
p686
S'0x8036'
p687
sS'extra_flags'
p688
S'{build.usb_flags}'
p689
sS'board'
p690
S'AVR_LEONARDO'
p691
sS'mcu'
p692
S'atmega32u4'
p693
sS'variant'
p694
S'leonardo'
p695
ssg147
S'/usr/local/share/arduino/hardware/arduino/avr'
p696
sS'bootloader'
p697
(dp698
S'extended_fuses'
p699
S'0xcb'
p700
sS'high_fuses'
p701
S'0xd8'
p702
sS'low_fuses'
p703
S'0xff'
p704
sS'lock_bits'
p705
S'0x2F'
p706
sS'tool'
p707
S'avrdude'
p708
sS'file'
p709
S'caterina/Caterina-Leonardo.hex'
p710
sS'unlock_bits'
p711
S'0x3F'
p712
ssaa(lp713
S'micro'
p714
a(dp715
S'bootloader'
p716
(dp717
S'extended_fuses'
p718
S'0xcb'
p719
sS'high_fuses'
p720
S'0xd8'
p721
sS'low_fuses'
p722
S'0xff'
p723
sS'lock_bits'
p724
S'0x2F'
p725
sS'tool'
p726
S'avrdude'
p727
sS'file'
p728
S'caterina/Caterina-Micro.hex'
p729
sS'unlock_bits'
p730
S'0x3F'
p731
ssS'upload'
p732
(dp733
S'protocol'
p734
S'avr109'
p735
sS'disable_flushing'
p736
S'true'
p737
sS'tool'
p738
S'avrdude'
p739
sS'maximum_data_size'
p740
S'2560'
p741
sS'maximum_size'
p742
S'28672'
p743
sS'use_1200bps_touch'
p744
S'true'
p745
sS'speed'
p746
S'57600'
p747
sS'wait_for_upload_port'
p748
S'true'
p749
ssS'build'
p750
(dp751
S'core'
p752
S'arduino'
p753
sS'f_cpu'
p754
S'16000000L'
p755
sS'vid'
p756
S'0x2341'
p757
sS'usb_product'
p758
S'"Arduino Micro"'
p759
sS'pid'
p760
S'0x8037'
p761
sS'extra_flags'
p762
S'{build.usb_flags}'
p763
sS'board'
p764
S'AVR_MICRO'
p765
sS'mcu'
p766
S'atmega32u4'
p767
sS'variant'
p768
S'micro'
p769
ssS'name'
p770
S'Arduino Micro'
p771
sg147
S'/usr/local/share/arduino/hardware/arduino/avr'
p772
saa(lp773
S'esplora'
p774
a(dp775
S'name'
p776
S'Arduino Esplora'
p777
sS'vid'
p778
(dp779
g212
S'0x2341'
p780
sg104
S'0x2341'
p781
ssS'pid'
p782
(dp783
g212
S'0x803c'
p784
sg104
S'0x003c'
p785
ssS'upload'
p786
(dp787
S'protocol'
p788
S'avr109'
p789
sS'disable_flushing'
p790
S'true'
p791
sS'tool'
p792
S'avrdude'
p793
sS'maximum_data_size'
p794
S'2560'
p795
sS'maximum_size'
p796
S'28672'
p797
sS'use_1200bps_touch'
p798
S'true'
p799
sS'speed'
p800
S'57600'
p801
sS'wait_for_upload_port'
p802
S'true'
p803
ssS'build'
p804
(dp805
S'core'
p806
S'arduino'
p807
sS'f_cpu'
p808
S'16000000L'
p809
sS'vid'
p810
S'0x2341'
p811
sS'usb_product'
p812
S'"Arduino Esplora"'
p813
sS'pid'
p814
S'0x803c'
p815
sS'extra_flags'
p816
S'{build.usb_flags}'
p817
sS'board'
p818
S'AVR_ESPLORA'
p819
sS'mcu'
p820
S'atmega32u4'
p821
sS'variant'
p822
S'leonardo'
p823
ssg147
S'/usr/local/share/arduino/hardware/arduino/avr'
p824
sS'bootloader'
p825
(dp826
S'extended_fuses'
p827
S'0xcb'
p828
sS'high_fuses'
p829
S'0xd8'
p830
sS'low_fuses'
p831
S'0xff'
p832
sS'lock_bits'
p833
S'0x2F'
p834
sS'tool'
p835
S'avrdude'
p836
sS'file'
p837
S'caterina/Caterina-Esplora.hex'
p838
sS'unlock_bits'
p839
S'0x3F'
p840
ssaa(lp841
S'mini'
p842
a(dp843
S'name'
p844
S'Arduino Mini'
p845
sS'menu'
p846
(dp847
S'cpu'
p848
(dp849
S'atmega168'
p850
(dp851
S'bootloader'
p852
(dp853
S'extended_fuses'
p854
S'0x00'
p855
sS'high_fuses'
p856
S'0xdd'
p857
sS'file'
p858
S'atmega/ATmegaBOOT_168_ng.hex'
p859
ssS'upload'
p860
(dp861
S'maximum_size'
p862
S'14336'
p863
sS'speed'
p864
S'19200'
p865
sS'maximum_data_size'
p866
S'1024'
p867
ssg357
S'ATmega168'
p868
sS'build'
p869
(dp870
S'mcu'
p871
S'atmega168'
p872
sssS'atmega328'
p873
(dp874
S'bootloader'
p875
(dp876
S'extended_fuses'
p877
S'0x05'
p878
sS'high_fuses'
p879
S'0xd8'
p880
sS'file'
p881
S'optiboot/optiboot_atmega328-Mini.hex'
p882
ssS'upload'
p883
(dp884
S'maximum_size'
p885
S'28672'
p886
sS'speed'
p887
S'115200'
p888
sS'maximum_data_size'
p889
S'2048'
p890
ssg357
S'ATmega328'
p891
sS'build'
p892
(dp893
S'mcu'
p894
S'atmega328p'
p895
sssssS'upload'
p896
(dp897
S'tool'
p898
S'avrdude'
p899
sS'protocol'
p900
S'arduino'
p901
ssS'build'
p902
(dp903
S'core'
p904
S'arduino'
p905
sS'f_cpu'
p906
S'16000000L'
p907
sS'board'
p908
S'AVR_MINI'
p909
sS'variant'
p910
S'eightanaloginputs'
p911
ssg147
S'/usr/local/share/arduino/hardware/arduino/avr'
p912
sS'bootloader'
p913
(dp914
S'low_fuses'
p915
S'0xff'
p916
sS'lock_bits'
p917
S'0x0F'
p918
sS'tool'
p919
S'avrdude'
p920
sS'unlock_bits'
p921
S'0x3F'
p922
ssaa(lp923
S'ethernet'
p924
a(dp925
S'bootloader'
p926
(dp927
S'extended_fuses'
p928
S'0x05'
p929
sS'high_fuses'
p930
S'0xde'
p931
sS'low_fuses'
p932
S'0xff'
p933
sS'lock_bits'
p934
S'0x0F'
p935
sS'tool'
p936
S'avrdude'
p937
sS'file'
p938
S'optiboot/optiboot_atmega328.hex'
p939
sS'unlock_bits'
p940
S'0x3F'
p941
ssS'upload'
p942
(dp943
S'speed'
p944
S'115200'
p945
sS'tool'
p946
S'avrdude'
p947
sS'protocol'
p948
S'arduino'
p949
sS'maximum_size'
p950
S'32256'
p951
sS'maximum_data_size'
p952
S'2048'
p953
ssS'build'
p954
(dp955
S'f_cpu'
p956
S'16000000L'
p957
sS'mcu'
p958
S'atmega328p'
p959
sS'variant'
p960
S'ethernet'
p961
sS'board'
p962
S'AVR_ETHERNET'
p963
sS'core'
p964
S'arduino'
p965
ssS'name'
p966
S'Arduino Ethernet'
p967
sg147
S'/usr/local/share/arduino/hardware/arduino/avr'
p968
saa(lp969
S'fio'
p970
a(dp971
S'bootloader'
p972
(dp973
S'extended_fuses'
p974
S'0x05'
p975
sS'high_fuses'
p976
S'0xDA'
p977
sS'low_fuses'
p978
S'0xFF'
p979
sS'lock_bits'
p980
S'0x0F'
p981
sS'tool'
p982
S'avrdude'
p983
sS'file'
p984
S'atmega/ATmegaBOOT_168_atmega328_pro_8MHz.hex'
p985
sS'unlock_bits'
p986
S'0x3F'
p987
ssS'upload'
p988
(dp989
S'speed'
p990
S'57600'
p991
sS'tool'
p992
S'avrdude'
p993
sS'protocol'
p994
S'arduino'
p995
sS'maximum_size'
p996
S'30720'
p997
sS'maximum_data_size'
p998
S'2048'
p999
ssS'build'
p1000
(dp1001
S'core'
p1002
S'arduino'
p1003
sS'mcu'
p1004
S'atmega328p'
p1005
sS'f_cpu'
p1006
S'8000000L'
p1007
sS'board'
p1008
S'AVR_FIO'
p1009
sS'variant'
p1010
S'eightanaloginputs'
p1011
ssS'name'
p1012
S'Arduino Fio'
p1013
sg147
S'/usr/local/share/arduino/hardware/arduino/avr'
p1014
saa(lp1015
S'bt'
p1016
a(dp1017
S'name'
p1018
S'Arduino BT'
p1019
sS'menu'
p1020
(dp1021
S'cpu'
p1022
(dp1023
S'atmega168'
p1024
(dp1025
S'bootloader'
p1026
(dp1027
S'extended_fuses'
p1028
S'0x00'
p1029
sS'high_fuses'
p1030
S'0xdd'
p1031
sS'file'
p1032
S'bt/ATmegaBOOT_168.hex'
p1033
ssS'upload'
p1034
(dp1035
S'maximum_size'
p1036
S'14336'
p1037
sS'maximum_data_size'
p1038
S'1024'
p1039
ssg357
S'ATmega168'
p1040
sS'build'
p1041
(dp1042
S'mcu'
p1043
S'atmega168'
p1044
sssS'atmega328'
p1045
(dp1046
S'bootloader'
p1047
(dp1048
S'extended_fuses'
p1049
S'0x05'
p1050
sS'high_fuses'
p1051
S'0xd8'
p1052
sS'file'
p1053
S'bt/ATmegaBOOT_168_atmega328_bt.hex'
p1054
ssS'upload'
p1055
(dp1056
S'maximum_size'
p1057
S'28672'
p1058
sS'maximum_data_size'
p1059
S'2048'
p1060
ssg357
S'ATmega328'
p1061
sS'build'
p1062
(dp1063
S'mcu'
p1064
S'atmega328p'
p1065
sssssS'upload'
p1066
(dp1067
S'speed'
p1068
S'19200'
p1069
sS'tool'
p1070
S'avrdude'
p1071
sS'protocol'
p1072
S'arduino'
p1073
sS'disable_flushing'
p1074
S'true'
p1075
ssS'build'
p1076
(dp1077
S'core'
p1078
S'arduino'
p1079
sS'f_cpu'
p1080
S'16000000L'
p1081
sS'board'
p1082
S'AVR_BT'
p1083
sS'variant'
p1084
S'eightanaloginputs'
p1085
ssg147
S'/usr/local/share/arduino/hardware/arduino/avr'
p1086
sS'bootloader'
p1087
(dp1088
S'low_fuses'
p1089
S'0xff'
p1090
sS'lock_bits'
p1091
S'0x0F'
p1092
sS'tool'
p1093
S'avrdude'
p1094
sS'unlock_bits'
p1095
S'0x3F'
p1096
ssaa(lp1097
S'LilyPadUSB'
p1098
a(dp1099
S'bootloader'
p1100
(dp1101
S'extended_fuses'
p1102
S'0xce'
p1103
sS'high_fuses'
p1104
S'0xd8'
p1105
sS'low_fuses'
p1106
S'0xff'
p1107
sS'lock_bits'
p1108
S'0x2F'
p1109
sS'tool'
p1110
S'avrdude'
p1111
sS'file'
p1112
S'caterina-LilyPadUSB/Caterina-LilyPadUSB.hex'
p1113
sS'unlock_bits'
p1114
S'0x3F'
p1115
ssS'upload'
p1116
(dp1117
S'protocol'
p1118
S'avr109'
p1119
sS'disable_flushing'
p1120
S'true'
p1121
sS'tool'
p1122
S'avrdude'
p1123
sS'maximum_data_size'
p1124
S'2560'
p1125
sS'maximum_size'
p1126
S'28672'
p1127
sS'use_1200bps_touch'
p1128
S'true'
p1129
sS'speed'
p1130
S'57600'
p1131
sS'wait_for_upload_port'
p1132
S'true'
p1133
ssS'build'
p1134
(dp1135
S'core'
p1136
S'arduino'
p1137
sS'f_cpu'
p1138
S'8000000L'
p1139
sS'vid'
p1140
S'0x1B4F'
p1141
sS'usb_product'
p1142
S'"LilyPad USB"'
p1143
sS'pid'
p1144
S'0x9208'
p1145
sS'extra_flags'
p1146
S'{build.usb_flags}'
p1147
sS'board'
p1148
S'AVR_LILYPAD_USB'
p1149
sS'mcu'
p1150
S'atmega32u4'
p1151
sS'variant'
p1152
S'leonardo'
p1153
ssS'name'
p1154
S'LilyPad Arduino USB'
p1155
sg147
S'/usr/local/share/arduino/hardware/arduino/avr'
p1156
saa(lp1157
S'lilypad'
p1158
a(dp1159
S'name'
p1160
S'LilyPad Arduino'
p1161
sS'menu'
p1162
(dp1163
S'cpu'
p1164
(dp1165
S'atmega168'
p1166
(dp1167
S'bootloader'
p1168
(dp1169
S'low_fuses'
p1170
S'0xe2'
p1171
sS'extended_fuses'
p1172
S'0x00'
p1173
sS'high_fuses'
p1174
S'0xdd'
p1175
sS'file'
p1176
S'lilypad/LilyPadBOOT_168.hex'
p1177
ssS'upload'
p1178
(dp1179
S'maximum_size'
p1180
S'14336'
p1181
sS'speed'
p1182
S'19200'
p1183
sS'maximum_data_size'
p1184
S'1024'
p1185
ssg357
S'ATmega168'
p1186
sS'build'
p1187
(dp1188
S'mcu'
p1189
S'atmega168'
p1190
sssS'atmega328'
p1191
(dp1192
S'bootloader'
p1193
(dp1194
S'low_fuses'
p1195
S'0xFF'
p1196
sS'extended_fuses'
p1197
S'0x05'
p1198
sS'high_fuses'
p1199
S'0xDA'
p1200
sS'file'
p1201
S'atmega/ATmegaBOOT_168_atmega328_pro_8MHz.hex'
p1202
ssS'upload'
p1203
(dp1204
S'maximum_size'
p1205
S'30720'
p1206
sS'speed'
p1207
S'57600'
p1208
sS'maximum_data_size'
p1209
S'2048'
p1210
ssg357
S'ATmega328'
p1211
sS'build'
p1212
(dp1213
S'mcu'
p1214
S'atmega328p'
p1215
sssssS'upload'
p1216
(dp1217
S'tool'
p1218
S'avrdude'
p1219
sS'protocol'
p1220
S'arduino'
p1221
ssS'build'
p1222
(dp1223
S'core'
p1224
S'arduino'
p1225
sS'f_cpu'
p1226
S'8000000L'
p1227
sS'board'
p1228
S'AVR_LILYPAD'
p1229
sS'variant'
p1230
S'standard'
p1231
ssg147
S'/usr/local/share/arduino/hardware/arduino/avr'
p1232
sS'bootloader'
p1233
(dp1234
S'lock_bits'
p1235
S'0x0F'
p1236
sS'tool'
p1237
S'avrdude'
p1238
sS'unlock_bits'
p1239
S'0x3F'
p1240
ssaa(lp1241
S'pro'
p1242
a(dp1243
S'name'
p1244
S'Arduino Pro or Pro Mini'
p1245
sS'menu'
p1246
(dp1247
S'cpu'
p1248
(dp1249
S'16MHzatmega328'
p1250
(dp1251
S'bootloader'
p1252
(dp1253
S'low_fuses'
p1254
S'0xFF'
p1255
sS'extended_fuses'
p1256
S'0x05'
p1257
sS'high_fuses'
p1258
S'0xDA'
p1259
sS'file'
p1260
S'atmega/ATmegaBOOT_168_atmega328.hex'
p1261
ssS'upload'
p1262
(dp1263
S'maximum_size'
p1264
S'30720'
p1265
sS'speed'
p1266
S'57600'
p1267
sS'maximum_data_size'
p1268
S'2048'
p1269
ssg357
S'ATmega328 (5V, 16 MHz)'
p1270
sS'build'
p1271
(dp1272
S'mcu'
p1273
S'atmega328p'
p1274
sS'f_cpu'
p1275
S'16000000L'
p1276
sssS'8MHzatmega328'
p1277
(dp1278
S'bootloader'
p1279
(dp1280
S'low_fuses'
p1281
S'0xFF'
p1282
sS'extended_fuses'
p1283
S'0x05'
p1284
sS'high_fuses'
p1285
S'0xDA'
p1286
sS'file'
p1287
S'atmega/ATmegaBOOT_168_atmega328_pro_8MHz.hex'
p1288
ssS'upload'
p1289
(dp1290
S'maximum_size'
p1291
S'30720'
p1292
sS'speed'
p1293
S'57600'
p1294
sS'maximum_data_size'
p1295
S'2048'
p1296
ssg357
S'ATmega328 (3.3V, 8 MHz)'
p1297
sS'build'
p1298
(dp1299
S'mcu'
p1300
S'atmega328p'
p1301
sS'f_cpu'
p1302
S'8000000L'
p1303
sssS'8MHzatmega168'
p1304
(dp1305
S'bootloader'
p1306
(dp1307
S'low_fuses'
p1308
S'0xc6'
p1309
sS'extended_fuses'
p1310
S'0x00'
p1311
sS'high_fuses'
p1312
S'0xdd'
p1313
sS'file'
p1314
S'atmega/ATmegaBOOT_168_pro_8MHz.hex'
p1315
ssS'upload'
p1316
(dp1317
S'maximum_size'
p1318
S'14336'
p1319
sS'speed'
p1320
S'19200'
p1321
sS'maximum_data_size'
p1322
S'1024'
p1323
ssg357
S'ATmega168 (3.3V, 8 MHz)'
p1324
sS'build'
p1325
(dp1326
S'mcu'
p1327
S'atmega168'
p1328
sS'f_cpu'
p1329
S'8000000L'
p1330
sssS'16MHzatmega168'
p1331
(dp1332
S'bootloader'
p1333
(dp1334
S'low_fuses'
p1335
S'0xff'
p1336
sS'extended_fuses'
p1337
S'0x00'
p1338
sS'high_fuses'
p1339
S'0xdd'
p1340
sS'file'
p1341
S'atmega/ATmegaBOOT_168_diecimila.hex'
p1342
ssS'upload'
p1343
(dp1344
S'maximum_size'
p1345
S'14336'
p1346
sS'speed'
p1347
S'19200'
p1348
sS'maximum_data_size'
p1349
S'1024'
p1350
ssg357
S'ATmega168 (5V, 16 MHz)'
p1351
sS'build'
p1352
(dp1353
S'mcu'
p1354
S'atmega168'
p1355
sS'f_cpu'
p1356
S'16000000L'
p1357
sssssS'upload'
p1358
(dp1359
S'tool'
p1360
S'avrdude'
p1361
sS'protocol'
p1362
S'arduino'
p1363
ssS'build'
p1364
(dp1365
S'core'
p1366
S'arduino'
p1367
sS'variant'
p1368
S'eightanaloginputs'
p1369
sS'board'
p1370
S'AVR_PRO'
p1371
ssg147
S'/usr/local/share/arduino/hardware/arduino/avr'
p1372
sS'bootloader'
p1373
(dp1374
S'lock_bits'
p1375
S'0x0F'
p1376
sS'tool'
p1377
S'avrdude'
p1378
sS'unlock_bits'
p1379
S'0x3F'
p1380
ssaa(lp1381
S'atmegang'
p1382
a(dp1383
S'name'
p1384
S'Arduino NG or older'
p1385
sS'menu'
p1386
(dp1387
S'cpu'
p1388
(dp1389
S'atmega168'
p1390
(dp1391
S'bootloader'
p1392
(dp1393
S'low_fuses'
p1394
S'0xff'
p1395
sS'extended_fuses'
p1396
S'0x00'
p1397
sS'high_fuses'
p1398
S'0xdd'
p1399
sS'file'
p1400
S'atmega/ATmegaBOOT_168_ng.hex'
p1401
ssS'upload'
p1402
(dp1403
S'maximum_size'
p1404
S'14336'
p1405
sS'maximum_data_size'
p1406
S'1024'
p1407
ssg357
S'ATmega168'
p1408
sS'build'
p1409
(dp1410
S'mcu'
p1411
S'atmega168'
p1412
sssS'atmega8'
p1413
(dp1414
S'bootloader'
p1415
(dp1416
S'low_fuses'
p1417
S'0xdf'
p1418
sS'high_fuses'
p1419
S'0xca'
p1420
sS'file'
p1421
S'atmega8/ATmegaBOOT-prod-firmware-2009-11-07.hex'
p1422
ssS'upload'
p1423
(dp1424
S'maximum_size'
p1425
S'7168'
p1426
sS'maximum_data_size'
p1427
S'1024'
p1428
ssg357
S'ATmega8'
p1429
sS'build'
p1430
(dp1431
S'mcu'
p1432
S'atmega8'
p1433
sssssS'upload'
p1434
(dp1435
S'speed'
p1436
S'19200'
p1437
sS'tool'
p1438
S'avrdude'
p1439
sS'protocol'
p1440
S'arduino'
p1441
ssS'build'
p1442
(dp1443
S'core'
p1444
S'arduino'
p1445
sS'mcu'
p1446
S'atmegang'
p1447
sS'f_cpu'
p1448
S'16000000L'
p1449
sS'board'
p1450
S'AVR_NG'
p1451
sS'variant'
p1452
S'standard'
p1453
ssg147
S'/usr/local/share/arduino/hardware/arduino/avr'
p1454
sS'bootloader'
p1455
(dp1456
S'lock_bits'
p1457
S'0x0F'
p1458
sS'tool'
p1459
S'avrdude'
p1460
sS'unlock_bits'
p1461
S'0x3F'
p1462
ssaa(lp1463
S'robotControl'
p1464
a(dp1465
S'bootloader'
p1466
(dp1467
S'extended_fuses'
p1468
S'0xcb'
p1469
sS'high_fuses'
p1470
S'0xd8'
p1471
sS'low_fuses'
p1472
S'0xff'
p1473
sS'lock_bits'
p1474
S'0x2F'
p1475
sS'tool'
p1476
S'avrdude'
p1477
sS'file'
p1478
S'caterina-Arduino_Robot/Caterina-Robot-Control.hex'
p1479
sS'unlock_bits'
p1480
S'0x3F'
p1481
ssS'upload'
p1482
(dp1483
S'protocol'
p1484
S'avr109'
p1485
sS'disable_flushing'
p1486
S'true'
p1487
sS'tool'
p1488
S'avrdude'
p1489
sS'maximum_data_size'
p1490
S'2560'
p1491
sS'maximum_size'
p1492
S'28672'
p1493
sS'use_1200bps_touch'
p1494
S'true'
p1495
sS'speed'
p1496
S'57600'
p1497
sS'wait_for_upload_port'
p1498
S'true'
p1499
ssS'build'
p1500
(dp1501
S'core'
p1502
S'arduino'
p1503
sS'f_cpu'
p1504
S'16000000L'
p1505
sS'vid'
p1506
S'0x2341'
p1507
sS'usb_product'
p1508
S'"Robot Control"'
p1509
sS'pid'
p1510
S'0x8038'
p1511
sS'extra_flags'
p1512
S'{build.usb_flags}'
p1513
sS'board'
p1514
S'AVR_ROBOT_CONTROL'
p1515
sS'mcu'
p1516
S'atmega32u4'
p1517
sS'variant'
p1518
S'robot_control'
p1519
ssS'name'
p1520
S'Arduino Robot Control'
p1521
sg147
S'/usr/local/share/arduino/hardware/arduino/avr'
p1522
saa(lp1523
S'robotMotor'
p1524
a(dp1525
S'bootloader'
p1526
(dp1527
S'extended_fuses'
p1528
S'0xcb'
p1529
sS'high_fuses'
p1530
S'0xd8'
p1531
sS'low_fuses'
p1532
S'0xff'
p1533
sS'lock_bits'
p1534
S'0x2F'
p1535
sS'tool'
p1536
S'avrdude'
p1537
sS'file'
p1538
S'caterina-Arduino_Robot/Caterina-Robot-Motor.hex'
p1539
sS'unlock_bits'
p1540
S'0x3F'
p1541
ssS'upload'
p1542
(dp1543
S'protocol'
p1544
S'avr109'
p1545
sS'disable_flushing'
p1546
S'true'
p1547
sS'tool'
p1548
S'avrdude'
p1549
sS'maximum_data_size'
p1550
S'2560'
p1551
sS'maximum_size'
p1552
S'28672'
p1553
sS'use_1200bps_touch'
p1554
S'true'
p1555
sS'speed'
p1556
S'57600'
p1557
sS'wait_for_upload_port'
p1558
S'true'
p1559
ssS'build'
p1560
(dp1561
S'core'
p1562
S'arduino'
p1563
sS'f_cpu'
p1564
S'16000000L'
p1565
sS'vid'
p1566
S'0x2341'
p1567
sS'usb_product'
p1568
S'"Robot Motor"'
p1569
sS'pid'
p1570
S'0x8039'
p1571
sS'extra_flags'
p1572
S'{build.usb_flags}'
p1573
sS'board'
p1574
S'AVR_ROBOT_MOTOR'
p1575
sS'mcu'
p1576
S'atmega32u4'
p1577
sS'variant'
p1578
S'robot_motor'
p1579
ssS'name'
p1580
S'Arduino Robot Motor'
p1581
sg147
S'/usr/local/share/arduino/hardware/arduino/avr'
p1582
saatp1583
Rp1584
(dp1585
S'default'
p1586
S'uno'
p1587
sbtp1588
a(S'ldflags'
p1589
g2
(g3
g4
(lp1590
g6
aS'-Wl,-Os'
p1591
aS'-Wl,--gc-sections'
p1592
atp1593
Rp1594
tp1595
a.