(lp0
(S'cppflags'
p1
ccopy_reg
_reconstructor
p2
(cino.utils
SpaceList
p3
c__builtin__
list
p4
(lp5
S'-mmcu=atmega2560'
p6
aS'-DF_CPU=16000000L'
p7
aS'-DARDUINO=160'
p8
aS'-I/usr/local/share/arduino/hardware/arduino/avr/cores/arduino'
p9
aS'-ffunction-sections'
p10
aS'-fdata-sections'
p11
aS'-g'
p12
aS'-Os'
p13
aS'-w'
p14
aS'-I/usr/local/share/arduino/hardware/arduino/avr/variants/mega'
p15
aS'-Ilib/TFTv2'
p16
aS'-Ilib/SPI'
p17
aS'-I/usr/local/share/arduino/hardware/arduino/avr/cores/arduino'
p18
atp19
Rp20
tp21
a(S'cxx'
p22
S'/usr/local/share/arduino/hardware/tools/avr/bin/avr-g++'
p23
tp24
a(S'build_dir'
p25
S'.build/megaADK'
p26
tp27
a(S'avrdude'
p28
S'/usr/local/share/arduino/hardware/tools/avr/bin/avrdude'
p29
tp30
a(S'ar'
p31
S'/usr/local/share/arduino/hardware/tools/avr/bin/avr-ar'
p32
tp33
a(S'names'
p34
(dp35
S'cpp'
p36
S'%s.cpp'
p37
sS'obj'
p38
S'%s.o'
p39
sS'deps'
p40
S'%s.d'
p41
sS'lib'
p42
S'lib%s.a'
p43
stp44
a(S'ldflags'
p45
g2
(g3
g4
(lp46
g6
aS'-Wl,-Os'
p47
aS'-Wl,--gc-sections'
p48
atp49
Rp50
tp51
a(S'arduino_lib_version'
p52
g2
(cino.environment
Version
p53
c__builtin__
tuple
p54
(I1
I6
I0
tp55
tp56
Rp57
tp58
a(S'objcopy'
p59
S'/usr/local/share/arduino/hardware/tools/avr/bin/avr-objcopy'
p60
tp61
a(S'board_models'
p62
cino.environment
BoardModels
p63
((lp64
(lp65
S'arduino_due_x_dbg'
p66
a(dp67
S'name'
p68
S'Arduino Due (Programming Port)'
p69
sS'vid'
p70
(dp71
S'0'
p72
S'0x2341'
p73
ssS'pid'
p74
(dp75
g72
S'0x003d'
p76
ssS'upload'
p77
(dp78
S'protocol'
p79
S'sam-ba'
p80
sS'wait_for_upload_port'
p81
S'false'
p82
sS'tool'
p83
S'bossac'
p84
sS'native_usb'
p85
S'false'
p86
sS'maximum_size'
p87
S'524288'
p88
sS'use_1200bps_touch'
p89
S'true'
p90
ssS'build'
p91
(dp92
S'core'
p93
S'arduino'
p94
sS'f_cpu'
p95
S'84000000L'
p96
sS'vid'
p97
S'0x2341'
p98
sS'pid'
p99
S'0x003e'
p100
sS'variant'
p101
S'arduino_due_x'
p102
sS'extra_flags'
p103
S'-D__SAM3X8E__ -mthumb {build.usb_flags}'
p104
sS'variant_system_lib'
p105
S'libsam_sam3x8e_gcc_rel.a'
p106
sS'usb_product'
p107
S'"Arduino Due"'
p108
sS'board'
p109
S'SAM_DUE'
p110
sS'ldscript'
p111
S'linker_scripts/gcc/flash.ld'
p112
sS'mcu'
p113
S'cortex-m3'
p114
ssS'_coredir'
p115
S'/usr/local/share/arduino/hardware/arduino/sam'
p116
saa(lp117
S'arduino_due_x'
p118
a(dp119
S'name'
p120
S'Arduino Due (Native USB Port)'
p121
sS'vid'
p122
(dp123
g72
S'0x2341'
p124
ssS'pid'
p125
(dp126
g72
S'0x003e'
p127
ssS'upload'
p128
(dp129
S'protocol'
p130
S'sam-ba'
p131
sS'wait_for_upload_port'
p132
S'true'
p133
sS'tool'
p134
S'bossac'
p135
sS'native_usb'
p136
S'true'
p137
sS'maximum_size'
p138
S'524288'
p139
sS'use_1200bps_touch'
p140
S'true'
p141
ssS'build'
p142
(dp143
S'core'
p144
S'arduino'
p145
sS'f_cpu'
p146
S'84000000L'
p147
sS'vid'
p148
S'0x2341'
p149
sS'pid'
p150
S'0x003e'
p151
sS'variant'
p152
S'arduino_due_x'
p153
sS'extra_flags'
p154
S'-D__SAM3X8E__ -mthumb {build.usb_flags}'
p155
sS'variant_system_lib'
p156
S'libsam_sam3x8e_gcc_rel.a'
p157
sS'usb_product'
p158
S'"Arduino Due"'
p159
sS'board'
p160
S'SAM_DUE'
p161
sS'ldscript'
p162
S'linker_scripts/gcc/flash.ld'
p163
sS'mcu'
p164
S'cortex-m3'
p165
ssg115
S'/usr/local/share/arduino/hardware/arduino/sam'
p166
saa(lp167
S'menu'
p168
a(dp169
S'cpu'
p170
S'Processor'
p171
sg115
S'/usr/local/share/arduino/hardware/arduino/avr'
p172
saa(lp173
S'yun'
p174
a(dp175
S'name'
p176
S'Arduino Y\xc3\xban'
p177
sS'vid'
p178
(dp179
S'1'
p180
S'0x2341'
p181
sg72
S'0x2341'
p182
ssS'pid'
p183
(dp184
g180
S'0x8041'
p185
sg72
S'0x0041'
p186
ssS'upload'
p187
(dp188
S'protocol'
p189
S'avr109'
p190
sS'disable_flushing'
p191
S'true'
p192
sS'tool'
p193
S'avrdude'
p194
sS'maximum_data_size'
p195
S'2560'
p196
sS'via_ssh'
p197
S'true'
p198
sS'maximum_size'
p199
S'28672'
p200
sS'use_1200bps_touch'
p201
S'true'
p202
sS'speed'
p203
S'57600'
p204
sS'wait_for_upload_port'
p205
S'true'
p206
ssS'build'
p207
(dp208
S'core'
p209
S'arduino'
p210
sS'f_cpu'
p211
S'16000000L'
p212
sS'vid'
p213
S'0x2341'
p214
sS'usb_product'
p215
S'"Arduino Yun"'
p216
sS'pid'
p217
S'0x8041'
p218
sS'extra_flags'
p219
S'{build.usb_flags}'
p220
sS'board'
p221
S'AVR_YUN'
p222
sS'mcu'
p223
S'atmega32u4'
p224
sS'variant'
p225
S'yun'
p226
ssg115
S'/usr/local/share/arduino/hardware/arduino/avr'
p227
sS'bootloader'
p228
(dp229
S'extended_fuses'
p230
S'0xfb'
p231
sS'high_fuses'
p232
S'0xd8'
p233
sS'low_fuses'
p234
S'0xff'
p235
sS'lock_bits'
p236
S'0x2F'
p237
sS'tool'
p238
S'avrdude'
p239
sS'file'
p240
S'caterina/Caterina-Yun.hex'
p241
sS'unlock_bits'
p242
S'0x3F'
p243
ssaa(lp244
S'uno'
p245
a(dp246
S'name'
p247
S'Arduino Uno'
p248
sS'vid'
p249
(dp250
g180
S'0x2341'
p251
sg72
S'0x2341'
p252
ssS'pid'
p253
(dp254
g180
S'0x0001'
p255
sg72
S'0x0043'
p256
ssS'upload'
p257
(dp258
S'speed'
p259
S'115200'
p260
sS'tool'
p261
S'avrdude'
p262
sS'protocol'
p263
S'arduino'
p264
sS'maximum_size'
p265
S'32256'
p266
sS'maximum_data_size'
p267
S'2048'
p268
ssS'build'
p269
(dp270
S'core'
p271
S'arduino'
p272
sS'mcu'
p273
S'atmega328p'
p274
sS'f_cpu'
p275
S'16000000L'
p276
sS'board'
p277
S'AVR_UNO'
p278
sS'variant'
p279
S'standard'
p280
ssg115
S'/usr/local/share/arduino/hardware/arduino/avr'
p281
sS'bootloader'
p282
(dp283
S'extended_fuses'
p284
S'0x05'
p285
sS'high_fuses'
p286
S'0xDE'
p287
sS'low_fuses'
p288
S'0xFF'
p289
sS'lock_bits'
p290
S'0x0F'
p291
sS'tool'
p292
S'avrdude'
p293
sS'file'
p294
S'optiboot/optiboot_atmega328.hex'
p295
sS'unlock_bits'
p296
S'0x3F'
p297
ssaa(lp298
S'diecimila'
p299
a(dp300
S'name'
p301
S'Arduino Duemilanove or Diecimila'
p302
sS'menu'
p303
(dp304
S'cpu'
p305
(dp306
S'atmega168'
p307
(dp308
S'bootloader'
p309
(dp310
S'extended_fuses'
p311
S'0x00'
p312
sS'high_fuses'
p313
S'0xdd'
p314
sS'file'
p315
S'atmega/ATmegaBOOT_168_diecimila.hex'
p316
ssS'upload'
p317
(dp318
S'maximum_size'
p319
S'14336'
p320
sS'speed'
p321
S'19200'
p322
sS'maximum_data_size'
p323
S'1024'
p324
ssS'_'
p325
S'ATmega168'
p326
sS'build'
p327
(dp328
S'mcu'
p329
S'atmega168'
p330
sssS'atmega328'
p331
(dp332
S'bootloader'
p333
(dp334
S'extended_fuses'
p335
S'0x05'
p336
sS'high_fuses'
p337
S'0xDA'
p338
sS'file'
p339
S'atmega/ATmegaBOOT_168_atmega328.hex'
p340
ssS'upload'
p341
(dp342
S'maximum_size'
p343
S'30720'
p344
sS'speed'
p345
S'57600'
p346
sS'maximum_data_size'
p347
S'2048'
p348
ssg325
S'ATmega328'
p349
sS'build'
p350
(dp351
S'mcu'
p352
S'atmega328p'
p353
sssssS'upload'
p354
(dp355
S'tool'
p356
S'avrdude'
p357
sS'protocol'
p358
S'arduino'
p359
ssS'build'
p360
(dp361
S'core'
p362
S'arduino'
p363
sS'f_cpu'
p364
S'16000000L'
p365
sS'board'
p366
S'AVR_DUEMILANOVE'
p367
sS'variant'
p368
S'standard'
p369
ssg115
S'/usr/local/share/arduino/hardware/arduino/avr'
p370
sS'bootloader'
p371
(dp372
S'low_fuses'
p373
S'0xFF'
p374
sS'lock_bits'
p375
S'0x0F'
p376
sS'tool'
p377
S'avrdude'
p378
sS'unlock_bits'
p379
S'0x3F'
p380
ssaa(lp381
S'nano'
p382
a(dp383
S'name'
p384
S'Arduino Nano'
p385
sS'menu'
p386
(dp387
S'cpu'
p388
(dp389
S'atmega168'
p390
(dp391
S'bootloader'
p392
(dp393
S'low_fuses'
p394
S'0xff'
p395
sS'extended_fuses'
p396
S'0x00'
p397
sS'high_fuses'
p398
S'0xdd'
p399
sS'file'
p400
S'atmega/ATmegaBOOT_168_diecimila.hex'
p401
ssS'upload'
p402
(dp403
S'maximum_size'
p404
S'14336'
p405
sS'speed'
p406
S'19200'
p407
sS'maximum_data_size'
p408
S'1024'
p409
ssg325
S'ATmega168'
p410
sS'build'
p411
(dp412
S'mcu'
p413
S'atmega168'
p414
sssS'atmega328'
p415
(dp416
S'bootloader'
p417
(dp418
S'low_fuses'
p419
S'0xFF'
p420
sS'extended_fuses'
p421
S'0x05'
p422
sS'high_fuses'
p423
S'0xDA'
p424
sS'file'
p425
S'atmega/ATmegaBOOT_168_atmega328.hex'
p426
ssS'upload'
p427
(dp428
S'maximum_size'
p429
S'30720'
p430
sS'speed'
p431
S'57600'
p432
sS'maximum_data_size'
p433
S'2048'
p434
ssg325
S'ATmega328'
p435
sS'build'
p436
(dp437
S'mcu'
p438
S'atmega328p'
p439
sssssS'upload'
p440
(dp441
S'tool'
p442
S'avrdude'
p443
sS'protocol'
p444
S'arduino'
p445
ssS'build'
p446
(dp447
S'core'
p448
S'arduino'
p449
sS'f_cpu'
p450
S'16000000L'
p451
sS'board'
p452
S'AVR_NANO'
p453
sS'variant'
p454
S'eightanaloginputs'
p455
ssg115
S'/usr/local/share/arduino/hardware/arduino/avr'
p456
sS'bootloader'
p457
(dp458
S'lock_bits'
p459
S'0x0F'
p460
sS'tool'
p461
S'avrdude'
p462
sS'unlock_bits'
p463
S'0x3F'
p464
ssaa(lp465
S'mega'
p466
a(dp467
S'name'
p468
S'Arduino Mega or Mega 2560'
p469
sS'vid'
p470
(dp471
g180
S'0x2341'
p472
sg72
S'0x2341'
p473
ssS'menu'
p474
(dp475
S'cpu'
p476
(dp477
S'atmega1280'
p478
(dp479
S'bootloader'
p480
(dp481
S'extended_fuses'
p482
S'0xF5'
p483
sS'high_fuses'
p484
S'0xDA'
p485
sS'file'
p486
S'atmega/ATmegaBOOT_168_atmega1280.hex'
p487
ssS'upload'
p488
(dp489
S'speed'
p490
S'57600'
p491
sS'maximum_size'
p492
S'126976'
p493
sS'protocol'
p494
S'arduino'
p495
ssg325
S'ATmega1280'
p496
sS'build'
p497
(dp498
S'mcu'
p499
S'atmega1280'
p500
sS'board'
p501
S'AVR_MEGA'
p502
sssS'atmega2560'
p503
(dp504
S'bootloader'
p505
(dp506
S'extended_fuses'
p507
S'0xFD'
p508
sS'high_fuses'
p509
S'0xD8'
p510
sS'file'
p511
S'stk500v2/stk500boot_v2_mega2560.hex'
p512
ssS'upload'
p513
(dp514
S'speed'
p515
S'115200'
p516
sS'maximum_size'
p517
S'253952'
p518
sS'protocol'
p519
S'wiring'
p520
ssg325
S'ATmega2560 (Mega 2560)'
p521
sS'build'
p522
(dp523
S'mcu'
p524
S'atmega2560'
p525
sS'board'
p526
S'AVR_MEGA2560'
p527
sssssS'pid'
p528
(dp529
g180
S'0x0042'
p530
sg72
S'0x0010'
p531
ssS'upload'
p532
(dp533
S'tool'
p534
S'avrdude'
p535
sS'maximum_data_size'
p536
S'8192'
p537
ssS'build'
p538
(dp539
S'core'
p540
S'arduino'
p541
sS'f_cpu'
p542
S'16000000L'
p543
sS'board'
p544
S'AVR_MEGA2560'
p545
sS'variant'
p546
S'mega'
p547
ssg115
S'/usr/local/share/arduino/hardware/arduino/avr'
p548
sS'bootloader'
p549
(dp550
S'low_fuses'
p551
S'0xFF'
p552
sS'lock_bits'
p553
S'0x0F'
p554
sS'tool'
p555
S'avrdude'
p556
sS'unlock_bits'
p557
S'0x3F'
p558
ssaa(lp559
S'megaADK'
p560
a(dp561
S'name'
p562
S'Arduino Mega ADK'
p563
sS'vid'
p564
(dp565
g180
S'0x2341'
p566
sg72
S'0x2341'
p567
ssS'pid'
p568
(dp569
g180
S'0x0044'
p570
sg72
S'0x003f'
p571
ssS'upload'
p572
(dp573
S'speed'
p574
S'115200'
p575
sS'tool'
p576
S'avrdude'
p577
sS'protocol'
p578
S'wiring'
p579
sS'maximum_size'
p580
S'253952'
p581
sS'maximum_data_size'
p582
S'8192'
p583
ssS'build'
p584
(dp585
S'core'
p586
S'arduino'
p587
sS'mcu'
p588
S'atmega2560'
p589
sS'f_cpu'
p590
S'16000000L'
p591
sS'board'
p592
S'AVR_ADK'
p593
sS'variant'
p594
S'mega'
p595
ssg115
S'/usr/local/share/arduino/hardware/arduino/avr'
p596
sS'bootloader'
p597
(dp598
S'extended_fuses'
p599
S'0xFD'
p600
sS'high_fuses'
p601
S'0xD8'
p602
sS'low_fuses'
p603
S'0xFF'
p604
sS'lock_bits'
p605
S'0x0F'
p606
sS'tool'
p607
S'avrdude'
p608
sS'file'
p609
S'stk500v2/stk500boot_v2_mega2560.hex'
p610
sS'unlock_bits'
p611
S'0x3F'
p612
ssaa(lp613
S'leonardo'
p614
a(dp615
S'name'
p616
S'Arduino Leonardo'
p617
sS'vid'
p618
(dp619
g180
S'0x2341'
p620
sg72
S'0x2341'
p621
ssS'pid'
p622
(dp623
g180
S'0x8036'
p624
sg72
S'0x0036'
p625
ssS'upload'
p626
(dp627
S'protocol'
p628
S'avr109'
p629
sS'disable_flushing'
p630
S'true'
p631
sS'tool'
p632
S'avrdude'
p633
sS'maximum_data_size'
p634
S'2560'
p635
sS'maximum_size'
p636
S'28672'
p637
sS'use_1200bps_touch'
p638
S'true'
p639
sS'speed'
p640
S'57600'
p641
sS'wait_for_upload_port'
p642
S'true'
p643
ssS'build'
p644
(dp645
S'core'
p646
S'arduino'
p647
sS'f_cpu'
p648
S'16000000L'
p649
sS'vid'
p650
S'0x2341'
p651
sS'usb_product'
p652
S'"Arduino Leonardo"'
p653
sS'pid'
p654
S'0x8036'
p655
sS'extra_flags'
p656
S'{build.usb_flags}'
p657
sS'board'
p658
S'AVR_LEONARDO'
p659
sS'mcu'
p660
S'atmega32u4'
p661
sS'variant'
p662
S'leonardo'
p663
ssg115
S'/usr/local/share/arduino/hardware/arduino/avr'
p664
sS'bootloader'
p665
(dp666
S'extended_fuses'
p667
S'0xcb'
p668
sS'high_fuses'
p669
S'0xd8'
p670
sS'low_fuses'
p671
S'0xff'
p672
sS'lock_bits'
p673
S'0x2F'
p674
sS'tool'
p675
S'avrdude'
p676
sS'file'
p677
S'caterina/Caterina-Leonardo.hex'
p678
sS'unlock_bits'
p679
S'0x3F'
p680
ssaa(lp681
S'micro'
p682
a(dp683
S'bootloader'
p684
(dp685
S'extended_fuses'
p686
S'0xcb'
p687
sS'high_fuses'
p688
S'0xd8'
p689
sS'low_fuses'
p690
S'0xff'
p691
sS'lock_bits'
p692
S'0x2F'
p693
sS'tool'
p694
S'avrdude'
p695
sS'file'
p696
S'caterina/Caterina-Micro.hex'
p697
sS'unlock_bits'
p698
S'0x3F'
p699
ssS'upload'
p700
(dp701
S'protocol'
p702
S'avr109'
p703
sS'disable_flushing'
p704
S'true'
p705
sS'tool'
p706
S'avrdude'
p707
sS'maximum_data_size'
p708
S'2560'
p709
sS'maximum_size'
p710
S'28672'
p711
sS'use_1200bps_touch'
p712
S'true'
p713
sS'speed'
p714
S'57600'
p715
sS'wait_for_upload_port'
p716
S'true'
p717
ssS'build'
p718
(dp719
S'core'
p720
S'arduino'
p721
sS'f_cpu'
p722
S'16000000L'
p723
sS'vid'
p724
S'0x2341'
p725
sS'usb_product'
p726
S'"Arduino Micro"'
p727
sS'pid'
p728
S'0x8037'
p729
sS'extra_flags'
p730
S'{build.usb_flags}'
p731
sS'board'
p732
S'AVR_MICRO'
p733
sS'mcu'
p734
S'atmega32u4'
p735
sS'variant'
p736
S'micro'
p737
ssS'name'
p738
S'Arduino Micro'
p739
sg115
S'/usr/local/share/arduino/hardware/arduino/avr'
p740
saa(lp741
S'esplora'
p742
a(dp743
S'name'
p744
S'Arduino Esplora'
p745
sS'vid'
p746
(dp747
g180
S'0x2341'
p748
sg72
S'0x2341'
p749
ssS'pid'
p750
(dp751
g180
S'0x803c'
p752
sg72
S'0x003c'
p753
ssS'upload'
p754
(dp755
S'protocol'
p756
S'avr109'
p757
sS'disable_flushing'
p758
S'true'
p759
sS'tool'
p760
S'avrdude'
p761
sS'maximum_data_size'
p762
S'2560'
p763
sS'maximum_size'
p764
S'28672'
p765
sS'use_1200bps_touch'
p766
S'true'
p767
sS'speed'
p768
S'57600'
p769
sS'wait_for_upload_port'
p770
S'true'
p771
ssS'build'
p772
(dp773
S'core'
p774
S'arduino'
p775
sS'f_cpu'
p776
S'16000000L'
p777
sS'vid'
p778
S'0x2341'
p779
sS'usb_product'
p780
S'"Arduino Esplora"'
p781
sS'pid'
p782
S'0x803c'
p783
sS'extra_flags'
p784
S'{build.usb_flags}'
p785
sS'board'
p786
S'AVR_ESPLORA'
p787
sS'mcu'
p788
S'atmega32u4'
p789
sS'variant'
p790
S'leonardo'
p791
ssg115
S'/usr/local/share/arduino/hardware/arduino/avr'
p792
sS'bootloader'
p793
(dp794
S'extended_fuses'
p795
S'0xcb'
p796
sS'high_fuses'
p797
S'0xd8'
p798
sS'low_fuses'
p799
S'0xff'
p800
sS'lock_bits'
p801
S'0x2F'
p802
sS'tool'
p803
S'avrdude'
p804
sS'file'
p805
S'caterina/Caterina-Esplora.hex'
p806
sS'unlock_bits'
p807
S'0x3F'
p808
ssaa(lp809
S'mini'
p810
a(dp811
S'name'
p812
S'Arduino Mini'
p813
sS'menu'
p814
(dp815
S'cpu'
p816
(dp817
S'atmega168'
p818
(dp819
S'bootloader'
p820
(dp821
S'extended_fuses'
p822
S'0x00'
p823
sS'high_fuses'
p824
S'0xdd'
p825
sS'file'
p826
S'atmega/ATmegaBOOT_168_ng.hex'
p827
ssS'upload'
p828
(dp829
S'maximum_size'
p830
S'14336'
p831
sS'speed'
p832
S'19200'
p833
sS'maximum_data_size'
p834
S'1024'
p835
ssg325
S'ATmega168'
p836
sS'build'
p837
(dp838
S'mcu'
p839
S'atmega168'
p840
sssS'atmega328'
p841
(dp842
S'bootloader'
p843
(dp844
S'extended_fuses'
p845
S'0x05'
p846
sS'high_fuses'
p847
S'0xd8'
p848
sS'file'
p849
S'optiboot/optiboot_atmega328-Mini.hex'
p850
ssS'upload'
p851
(dp852
S'maximum_size'
p853
S'28672'
p854
sS'speed'
p855
S'115200'
p856
sS'maximum_data_size'
p857
S'2048'
p858
ssg325
S'ATmega328'
p859
sS'build'
p860
(dp861
S'mcu'
p862
S'atmega328p'
p863
sssssS'upload'
p864
(dp865
S'tool'
p866
S'avrdude'
p867
sS'protocol'
p868
S'arduino'
p869
ssS'build'
p870
(dp871
S'core'
p872
S'arduino'
p873
sS'f_cpu'
p874
S'16000000L'
p875
sS'board'
p876
S'AVR_MINI'
p877
sS'variant'
p878
S'eightanaloginputs'
p879
ssg115
S'/usr/local/share/arduino/hardware/arduino/avr'
p880
sS'bootloader'
p881
(dp882
S'low_fuses'
p883
S'0xff'
p884
sS'lock_bits'
p885
S'0x0F'
p886
sS'tool'
p887
S'avrdude'
p888
sS'unlock_bits'
p889
S'0x3F'
p890
ssaa(lp891
S'ethernet'
p892
a(dp893
S'bootloader'
p894
(dp895
S'extended_fuses'
p896
S'0x05'
p897
sS'high_fuses'
p898
S'0xde'
p899
sS'low_fuses'
p900
S'0xff'
p901
sS'lock_bits'
p902
S'0x0F'
p903
sS'tool'
p904
S'avrdude'
p905
sS'file'
p906
S'optiboot/optiboot_atmega328.hex'
p907
sS'unlock_bits'
p908
S'0x3F'
p909
ssS'upload'
p910
(dp911
S'speed'
p912
S'115200'
p913
sS'tool'
p914
S'avrdude'
p915
sS'protocol'
p916
S'arduino'
p917
sS'maximum_size'
p918
S'32256'
p919
sS'maximum_data_size'
p920
S'2048'
p921
ssS'build'
p922
(dp923
S'f_cpu'
p924
S'16000000L'
p925
sS'mcu'
p926
S'atmega328p'
p927
sS'variant'
p928
S'ethernet'
p929
sS'board'
p930
S'AVR_ETHERNET'
p931
sS'core'
p932
S'arduino'
p933
ssS'name'
p934
S'Arduino Ethernet'
p935
sg115
S'/usr/local/share/arduino/hardware/arduino/avr'
p936
saa(lp937
S'fio'
p938
a(dp939
S'bootloader'
p940
(dp941
S'extended_fuses'
p942
S'0x05'
p943
sS'high_fuses'
p944
S'0xDA'
p945
sS'low_fuses'
p946
S'0xFF'
p947
sS'lock_bits'
p948
S'0x0F'
p949
sS'tool'
p950
S'avrdude'
p951
sS'file'
p952
S'atmega/ATmegaBOOT_168_atmega328_pro_8MHz.hex'
p953
sS'unlock_bits'
p954
S'0x3F'
p955
ssS'upload'
p956
(dp957
S'speed'
p958
S'57600'
p959
sS'tool'
p960
S'avrdude'
p961
sS'protocol'
p962
S'arduino'
p963
sS'maximum_size'
p964
S'30720'
p965
sS'maximum_data_size'
p966
S'2048'
p967
ssS'build'
p968
(dp969
S'core'
p970
S'arduino'
p971
sS'mcu'
p972
S'atmega328p'
p973
sS'f_cpu'
p974
S'8000000L'
p975
sS'board'
p976
S'AVR_FIO'
p977
sS'variant'
p978
S'eightanaloginputs'
p979
ssS'name'
p980
S'Arduino Fio'
p981
sg115
S'/usr/local/share/arduino/hardware/arduino/avr'
p982
saa(lp983
S'bt'
p984
a(dp985
S'name'
p986
S'Arduino BT'
p987
sS'menu'
p988
(dp989
S'cpu'
p990
(dp991
S'atmega168'
p992
(dp993
S'bootloader'
p994
(dp995
S'extended_fuses'
p996
S'0x00'
p997
sS'high_fuses'
p998
S'0xdd'
p999
sS'file'
p1000
S'bt/ATmegaBOOT_168.hex'
p1001
ssS'upload'
p1002
(dp1003
S'maximum_size'
p1004
S'14336'
p1005
sS'maximum_data_size'
p1006
S'1024'
p1007
ssg325
S'ATmega168'
p1008
sS'build'
p1009
(dp1010
S'mcu'
p1011
S'atmega168'
p1012
sssS'atmega328'
p1013
(dp1014
S'bootloader'
p1015
(dp1016
S'extended_fuses'
p1017
S'0x05'
p1018
sS'high_fuses'
p1019
S'0xd8'
p1020
sS'file'
p1021
S'bt/ATmegaBOOT_168_atmega328_bt.hex'
p1022
ssS'upload'
p1023
(dp1024
S'maximum_size'
p1025
S'28672'
p1026
sS'maximum_data_size'
p1027
S'2048'
p1028
ssg325
S'ATmega328'
p1029
sS'build'
p1030
(dp1031
S'mcu'
p1032
S'atmega328p'
p1033
sssssS'upload'
p1034
(dp1035
S'speed'
p1036
S'19200'
p1037
sS'tool'
p1038
S'avrdude'
p1039
sS'protocol'
p1040
S'arduino'
p1041
sS'disable_flushing'
p1042
S'true'
p1043
ssS'build'
p1044
(dp1045
S'core'
p1046
S'arduino'
p1047
sS'f_cpu'
p1048
S'16000000L'
p1049
sS'board'
p1050
S'AVR_BT'
p1051
sS'variant'
p1052
S'eightanaloginputs'
p1053
ssg115
S'/usr/local/share/arduino/hardware/arduino/avr'
p1054
sS'bootloader'
p1055
(dp1056
S'low_fuses'
p1057
S'0xff'
p1058
sS'lock_bits'
p1059
S'0x0F'
p1060
sS'tool'
p1061
S'avrdude'
p1062
sS'unlock_bits'
p1063
S'0x3F'
p1064
ssaa(lp1065
S'LilyPadUSB'
p1066
a(dp1067
S'bootloader'
p1068
(dp1069
S'extended_fuses'
p1070
S'0xce'
p1071
sS'high_fuses'
p1072
S'0xd8'
p1073
sS'low_fuses'
p1074
S'0xff'
p1075
sS'lock_bits'
p1076
S'0x2F'
p1077
sS'tool'
p1078
S'avrdude'
p1079
sS'file'
p1080
S'caterina-LilyPadUSB/Caterina-LilyPadUSB.hex'
p1081
sS'unlock_bits'
p1082
S'0x3F'
p1083
ssS'upload'
p1084
(dp1085
S'protocol'
p1086
S'avr109'
p1087
sS'disable_flushing'
p1088
S'true'
p1089
sS'tool'
p1090
S'avrdude'
p1091
sS'maximum_data_size'
p1092
S'2560'
p1093
sS'maximum_size'
p1094
S'28672'
p1095
sS'use_1200bps_touch'
p1096
S'true'
p1097
sS'speed'
p1098
S'57600'
p1099
sS'wait_for_upload_port'
p1100
S'true'
p1101
ssS'build'
p1102
(dp1103
S'core'
p1104
S'arduino'
p1105
sS'f_cpu'
p1106
S'8000000L'
p1107
sS'vid'
p1108
S'0x1B4F'
p1109
sS'usb_product'
p1110
S'"LilyPad USB"'
p1111
sS'pid'
p1112
S'0x9208'
p1113
sS'extra_flags'
p1114
S'{build.usb_flags}'
p1115
sS'board'
p1116
S'AVR_LILYPAD_USB'
p1117
sS'mcu'
p1118
S'atmega32u4'
p1119
sS'variant'
p1120
S'leonardo'
p1121
ssS'name'
p1122
S'LilyPad Arduino USB'
p1123
sg115
S'/usr/local/share/arduino/hardware/arduino/avr'
p1124
saa(lp1125
S'lilypad'
p1126
a(dp1127
S'name'
p1128
S'LilyPad Arduino'
p1129
sS'menu'
p1130
(dp1131
S'cpu'
p1132
(dp1133
S'atmega168'
p1134
(dp1135
S'bootloader'
p1136
(dp1137
S'low_fuses'
p1138
S'0xe2'
p1139
sS'extended_fuses'
p1140
S'0x00'
p1141
sS'high_fuses'
p1142
S'0xdd'
p1143
sS'file'
p1144
S'lilypad/LilyPadBOOT_168.hex'
p1145
ssS'upload'
p1146
(dp1147
S'maximum_size'
p1148
S'14336'
p1149
sS'speed'
p1150
S'19200'
p1151
sS'maximum_data_size'
p1152
S'1024'
p1153
ssg325
S'ATmega168'
p1154
sS'build'
p1155
(dp1156
S'mcu'
p1157
S'atmega168'
p1158
sssS'atmega328'
p1159
(dp1160
S'bootloader'
p1161
(dp1162
S'low_fuses'
p1163
S'0xFF'
p1164
sS'extended_fuses'
p1165
S'0x05'
p1166
sS'high_fuses'
p1167
S'0xDA'
p1168
sS'file'
p1169
S'atmega/ATmegaBOOT_168_atmega328_pro_8MHz.hex'
p1170
ssS'upload'
p1171
(dp1172
S'maximum_size'
p1173
S'30720'
p1174
sS'speed'
p1175
S'57600'
p1176
sS'maximum_data_size'
p1177
S'2048'
p1178
ssg325
S'ATmega328'
p1179
sS'build'
p1180
(dp1181
S'mcu'
p1182
S'atmega328p'
p1183
sssssS'upload'
p1184
(dp1185
S'tool'
p1186
S'avrdude'
p1187
sS'protocol'
p1188
S'arduino'
p1189
ssS'build'
p1190
(dp1191
S'core'
p1192
S'arduino'
p1193
sS'f_cpu'
p1194
S'8000000L'
p1195
sS'board'
p1196
S'AVR_LILYPAD'
p1197
sS'variant'
p1198
S'standard'
p1199
ssg115
S'/usr/local/share/arduino/hardware/arduino/avr'
p1200
sS'bootloader'
p1201
(dp1202
S'lock_bits'
p1203
S'0x0F'
p1204
sS'tool'
p1205
S'avrdude'
p1206
sS'unlock_bits'
p1207
S'0x3F'
p1208
ssaa(lp1209
S'pro'
p1210
a(dp1211
S'name'
p1212
S'Arduino Pro or Pro Mini'
p1213
sS'menu'
p1214
(dp1215
S'cpu'
p1216
(dp1217
S'16MHzatmega328'
p1218
(dp1219
S'bootloader'
p1220
(dp1221
S'low_fuses'
p1222
S'0xFF'
p1223
sS'extended_fuses'
p1224
S'0x05'
p1225
sS'high_fuses'
p1226
S'0xDA'
p1227
sS'file'
p1228
S'atmega/ATmegaBOOT_168_atmega328.hex'
p1229
ssS'upload'
p1230
(dp1231
S'maximum_size'
p1232
S'30720'
p1233
sS'speed'
p1234
S'57600'
p1235
sS'maximum_data_size'
p1236
S'2048'
p1237
ssg325
S'ATmega328 (5V, 16 MHz)'
p1238
sS'build'
p1239
(dp1240
S'mcu'
p1241
S'atmega328p'
p1242
sS'f_cpu'
p1243
S'16000000L'
p1244
sssS'8MHzatmega328'
p1245
(dp1246
S'bootloader'
p1247
(dp1248
S'low_fuses'
p1249
S'0xFF'
p1250
sS'extended_fuses'
p1251
S'0x05'
p1252
sS'high_fuses'
p1253
S'0xDA'
p1254
sS'file'
p1255
S'atmega/ATmegaBOOT_168_atmega328_pro_8MHz.hex'
p1256
ssS'upload'
p1257
(dp1258
S'maximum_size'
p1259
S'30720'
p1260
sS'speed'
p1261
S'57600'
p1262
sS'maximum_data_size'
p1263
S'2048'
p1264
ssg325
S'ATmega328 (3.3V, 8 MHz)'
p1265
sS'build'
p1266
(dp1267
S'mcu'
p1268
S'atmega328p'
p1269
sS'f_cpu'
p1270
S'8000000L'
p1271
sssS'8MHzatmega168'
p1272
(dp1273
S'bootloader'
p1274
(dp1275
S'low_fuses'
p1276
S'0xc6'
p1277
sS'extended_fuses'
p1278
S'0x00'
p1279
sS'high_fuses'
p1280
S'0xdd'
p1281
sS'file'
p1282
S'atmega/ATmegaBOOT_168_pro_8MHz.hex'
p1283
ssS'upload'
p1284
(dp1285
S'maximum_size'
p1286
S'14336'
p1287
sS'speed'
p1288
S'19200'
p1289
sS'maximum_data_size'
p1290
S'1024'
p1291
ssg325
S'ATmega168 (3.3V, 8 MHz)'
p1292
sS'build'
p1293
(dp1294
S'mcu'
p1295
S'atmega168'
p1296
sS'f_cpu'
p1297
S'8000000L'
p1298
sssS'16MHzatmega168'
p1299
(dp1300
S'bootloader'
p1301
(dp1302
S'low_fuses'
p1303
S'0xff'
p1304
sS'extended_fuses'
p1305
S'0x00'
p1306
sS'high_fuses'
p1307
S'0xdd'
p1308
sS'file'
p1309
S'atmega/ATmegaBOOT_168_diecimila.hex'
p1310
ssS'upload'
p1311
(dp1312
S'maximum_size'
p1313
S'14336'
p1314
sS'speed'
p1315
S'19200'
p1316
sS'maximum_data_size'
p1317
S'1024'
p1318
ssg325
S'ATmega168 (5V, 16 MHz)'
p1319
sS'build'
p1320
(dp1321
S'mcu'
p1322
S'atmega168'
p1323
sS'f_cpu'
p1324
S'16000000L'
p1325
sssssS'upload'
p1326
(dp1327
S'tool'
p1328
S'avrdude'
p1329
sS'protocol'
p1330
S'arduino'
p1331
ssS'build'
p1332
(dp1333
S'core'
p1334
S'arduino'
p1335
sS'variant'
p1336
S'eightanaloginputs'
p1337
sS'board'
p1338
S'AVR_PRO'
p1339
ssg115
S'/usr/local/share/arduino/hardware/arduino/avr'
p1340
sS'bootloader'
p1341
(dp1342
S'lock_bits'
p1343
S'0x0F'
p1344
sS'tool'
p1345
S'avrdude'
p1346
sS'unlock_bits'
p1347
S'0x3F'
p1348
ssaa(lp1349
S'atmegang'
p1350
a(dp1351
S'name'
p1352
S'Arduino NG or older'
p1353
sS'menu'
p1354
(dp1355
S'cpu'
p1356
(dp1357
S'atmega168'
p1358
(dp1359
S'bootloader'
p1360
(dp1361
S'low_fuses'
p1362
S'0xff'
p1363
sS'extended_fuses'
p1364
S'0x00'
p1365
sS'high_fuses'
p1366
S'0xdd'
p1367
sS'file'
p1368
S'atmega/ATmegaBOOT_168_ng.hex'
p1369
ssS'upload'
p1370
(dp1371
S'maximum_size'
p1372
S'14336'
p1373
sS'maximum_data_size'
p1374
S'1024'
p1375
ssg325
S'ATmega168'
p1376
sS'build'
p1377
(dp1378
S'mcu'
p1379
S'atmega168'
p1380
sssS'atmega8'
p1381
(dp1382
S'bootloader'
p1383
(dp1384
S'low_fuses'
p1385
S'0xdf'
p1386
sS'high_fuses'
p1387
S'0xca'
p1388
sS'file'
p1389
S'atmega8/ATmegaBOOT-prod-firmware-2009-11-07.hex'
p1390
ssS'upload'
p1391
(dp1392
S'maximum_size'
p1393
S'7168'
p1394
sS'maximum_data_size'
p1395
S'1024'
p1396
ssg325
S'ATmega8'
p1397
sS'build'
p1398
(dp1399
S'mcu'
p1400
S'atmega8'
p1401
sssssS'upload'
p1402
(dp1403
S'speed'
p1404
S'19200'
p1405
sS'tool'
p1406
S'avrdude'
p1407
sS'protocol'
p1408
S'arduino'
p1409
ssS'build'
p1410
(dp1411
S'core'
p1412
S'arduino'
p1413
sS'mcu'
p1414
S'atmegang'
p1415
sS'f_cpu'
p1416
S'16000000L'
p1417
sS'board'
p1418
S'AVR_NG'
p1419
sS'variant'
p1420
S'standard'
p1421
ssg115
S'/usr/local/share/arduino/hardware/arduino/avr'
p1422
sS'bootloader'
p1423
(dp1424
S'lock_bits'
p1425
S'0x0F'
p1426
sS'tool'
p1427
S'avrdude'
p1428
sS'unlock_bits'
p1429
S'0x3F'
p1430
ssaa(lp1431
S'robotControl'
p1432
a(dp1433
S'bootloader'
p1434
(dp1435
S'extended_fuses'
p1436
S'0xcb'
p1437
sS'high_fuses'
p1438
S'0xd8'
p1439
sS'low_fuses'
p1440
S'0xff'
p1441
sS'lock_bits'
p1442
S'0x2F'
p1443
sS'tool'
p1444
S'avrdude'
p1445
sS'file'
p1446
S'caterina-Arduino_Robot/Caterina-Robot-Control.hex'
p1447
sS'unlock_bits'
p1448
S'0x3F'
p1449
ssS'upload'
p1450
(dp1451
S'protocol'
p1452
S'avr109'
p1453
sS'disable_flushing'
p1454
S'true'
p1455
sS'tool'
p1456
S'avrdude'
p1457
sS'maximum_data_size'
p1458
S'2560'
p1459
sS'maximum_size'
p1460
S'28672'
p1461
sS'use_1200bps_touch'
p1462
S'true'
p1463
sS'speed'
p1464
S'57600'
p1465
sS'wait_for_upload_port'
p1466
S'true'
p1467
ssS'build'
p1468
(dp1469
S'core'
p1470
S'arduino'
p1471
sS'f_cpu'
p1472
S'16000000L'
p1473
sS'vid'
p1474
S'0x2341'
p1475
sS'usb_product'
p1476
S'"Robot Control"'
p1477
sS'pid'
p1478
S'0x8038'
p1479
sS'extra_flags'
p1480
S'{build.usb_flags}'
p1481
sS'board'
p1482
S'AVR_ROBOT_CONTROL'
p1483
sS'mcu'
p1484
S'atmega32u4'
p1485
sS'variant'
p1486
S'robot_control'
p1487
ssS'name'
p1488
S'Arduino Robot Control'
p1489
sg115
S'/usr/local/share/arduino/hardware/arduino/avr'
p1490
saa(lp1491
S'robotMotor'
p1492
a(dp1493
S'bootloader'
p1494
(dp1495
S'extended_fuses'
p1496
S'0xcb'
p1497
sS'high_fuses'
p1498
S'0xd8'
p1499
sS'low_fuses'
p1500
S'0xff'
p1501
sS'lock_bits'
p1502
S'0x2F'
p1503
sS'tool'
p1504
S'avrdude'
p1505
sS'file'
p1506
S'caterina-Arduino_Robot/Caterina-Robot-Motor.hex'
p1507
sS'unlock_bits'
p1508
S'0x3F'
p1509
ssS'upload'
p1510
(dp1511
S'protocol'
p1512
S'avr109'
p1513
sS'disable_flushing'
p1514
S'true'
p1515
sS'tool'
p1516
S'avrdude'
p1517
sS'maximum_data_size'
p1518
S'2560'
p1519
sS'maximum_size'
p1520
S'28672'
p1521
sS'use_1200bps_touch'
p1522
S'true'
p1523
sS'speed'
p1524
S'57600'
p1525
sS'wait_for_upload_port'
p1526
S'true'
p1527
ssS'build'
p1528
(dp1529
S'core'
p1530
S'arduino'
p1531
sS'f_cpu'
p1532
S'16000000L'
p1533
sS'vid'
p1534
S'0x2341'
p1535
sS'usb_product'
p1536
S'"Robot Motor"'
p1537
sS'pid'
p1538
S'0x8039'
p1539
sS'extra_flags'
p1540
S'{build.usb_flags}'
p1541
sS'board'
p1542
S'AVR_ROBOT_MOTOR'
p1543
sS'mcu'
p1544
S'atmega32u4'
p1545
sS'variant'
p1546
S'robot_motor'
p1547
ssS'name'
p1548
S'Arduino Robot Motor'
p1549
sg115
S'/usr/local/share/arduino/hardware/arduino/avr'
p1550
saatp1551
Rp1552
(dp1553
S'default'
p1554
S'uno'
p1555
sbtp1556
a(S'used_libs'
p1557
(lp1558
S'lib/TFTv2'
p1559
aS'lib/SPI'
p1560
aS'/usr/local/share/arduino/hardware/arduino/avr/cores/arduino'
p1561
atp1562
a(S'make'
p1563
S'/usr/bin/make'
p1564
tp1565
a(S'arduino_libraries_dir'
p1566
S'/usr/local/share/arduino/libraries'
p1567
tp1568
a(S'cc'
p1569
S'/usr/local/share/arduino/hardware/tools/avr/bin/avr-gcc'
p1570
tp1571
a(S'cflags'
p1572
g2
(g3
g4
(lp1573
tp1574
Rp1575
tp1576
a(S'cxxflags'
p1577
g2
(g3
g4
(lp1578
S'-fno-exceptions'
p1579
atp1580
Rp1581
tp1582
a(S'arduino_variants_dir'
p1583
S'/usr/local/share/arduino/hardware/arduino/avr/variants'
p1584
tp1585
a(S'stty'
p1586
S'/bin/stty'
p1587
tp1588
a(S'version.txt'
p1589
S'/usr/local/share/arduino/lib/version.txt'
p1590
tp1591
a(S'arduino_core_dir'
p1592
g1561
tp1593
a(S'boards.txt'
p1594
(lp1595
S'/usr/local/share/arduino/hardware/arduino/sam/boards.txt'
p1596
aS'/usr/local/share/arduino/hardware/arduino/avr/boards.txt'
p1597
atp1598
a(S'avrdude.conf'
p1599
S'/usr/local/share/arduino/hardware/tools/avr/etc/avrdude.conf'
p1600
tp1601
a(g40
g2
(g3
g4
(lp1602
S'.build/megaADK/src/dependencies.d'
p1603
aS'.build/megaADK/TFTv2/dependencies.d'
p1604
aS'.build/megaADK/SPI/dependencies.d'
p1605
aS'.build/megaADK/arduino/dependencies.d'
p1606
atp1607
Rp1608
tp1609
a.