(lp0
(S'cppflags'
p1
ccopy_reg
_reconstructor
p2
(cino.utils
SpaceList
p3
c__builtin__
list
p4
(lp5
S'-mmcu=atmega328p'
p6
aS'-DF_CPU=16000000L'
p7
aS'-DARDUINO=160'
p8
aS'-I/usr/local/share/arduino/hardware/arduino/avr/cores/arduino'
p9
aS'-ffunction-sections'
p10
aS'-fdata-sections'
p11
aS'-g'
p12
aS'-Os'
p13
aS'-w'
p14
aS'-I/usr/local/share/arduino/hardware/arduino/avr/variants/standard'
p15
aS'-Ilib/Queue'
p16
aS'-I/usr/local/share/arduino/hardware/arduino/avr/cores/arduino'
p17
atp18
Rp19
tp20
a(S'cxx'
p21
S'/usr/local/share/arduino/hardware/tools/avr/bin/avr-g++'
p22
tp23
a(S'build_dir'
p24
S'.build/uno'
p25
tp26
a(S'avrdude'
p27
S'/usr/local/share/arduino/hardware/tools/avr/bin/avrdude'
p28
tp29
a(S'ar'
p30
S'/usr/local/share/arduino/hardware/tools/avr/bin/avr-ar'
p31
tp32
a(S'names'
p33
(dp34
S'cpp'
p35
S'%s.cpp'
p36
sS'obj'
p37
S'%s.o'
p38
sS'deps'
p39
S'%s.d'
p40
sS'lib'
p41
S'lib%s.a'
p42
stp43
a(S'ldflags'
p44
g2
(g3
g4
(lp45
g6
aS'-Wl,-Os'
p46
aS'-Wl,--gc-sections'
p47
atp48
Rp49
tp50
a(S'arduino_lib_version'
p51
g2
(cino.environment
Version
p52
c__builtin__
tuple
p53
(I1
I6
I0
tp54
tp55
Rp56
tp57
a(S'objcopy'
p58
S'/usr/local/share/arduino/hardware/tools/avr/bin/avr-objcopy'
p59
tp60
a(S'board_models'
p61
cino.environment
BoardModels
p62
((lp63
(lp64
S'arduino_due_x_dbg'
p65
a(dp66
S'name'
p67
S'Arduino Due (Programming Port)'
p68
sS'vid'
p69
(dp70
S'0'
p71
S'0x2341'
p72
ssS'pid'
p73
(dp74
g71
S'0x003d'
p75
ssS'upload'
p76
(dp77
S'protocol'
p78
S'sam-ba'
p79
sS'wait_for_upload_port'
p80
S'false'
p81
sS'tool'
p82
S'bossac'
p83
sS'native_usb'
p84
S'false'
p85
sS'maximum_size'
p86
S'524288'
p87
sS'use_1200bps_touch'
p88
S'true'
p89
ssS'build'
p90
(dp91
S'core'
p92
S'arduino'
p93
sS'f_cpu'
p94
S'84000000L'
p95
sS'vid'
p96
S'0x2341'
p97
sS'pid'
p98
S'0x003e'
p99
sS'variant'
p100
S'arduino_due_x'
p101
sS'extra_flags'
p102
S'-D__SAM3X8E__ -mthumb {build.usb_flags}'
p103
sS'variant_system_lib'
p104
S'libsam_sam3x8e_gcc_rel.a'
p105
sS'usb_product'
p106
S'"Arduino Due"'
p107
sS'board'
p108
S'SAM_DUE'
p109
sS'ldscript'
p110
S'linker_scripts/gcc/flash.ld'
p111
sS'mcu'
p112
S'cortex-m3'
p113
ssS'_coredir'
p114
S'/usr/local/share/arduino/hardware/arduino/sam'
p115
saa(lp116
S'arduino_due_x'
p117
a(dp118
S'name'
p119
S'Arduino Due (Native USB Port)'
p120
sS'vid'
p121
(dp122
g71
S'0x2341'
p123
ssS'pid'
p124
(dp125
g71
S'0x003e'
p126
ssS'upload'
p127
(dp128
S'protocol'
p129
S'sam-ba'
p130
sS'wait_for_upload_port'
p131
S'true'
p132
sS'tool'
p133
S'bossac'
p134
sS'native_usb'
p135
S'true'
p136
sS'maximum_size'
p137
S'524288'
p138
sS'use_1200bps_touch'
p139
S'true'
p140
ssS'build'
p141
(dp142
S'core'
p143
S'arduino'
p144
sS'f_cpu'
p145
S'84000000L'
p146
sS'vid'
p147
S'0x2341'
p148
sS'pid'
p149
S'0x003e'
p150
sS'variant'
p151
S'arduino_due_x'
p152
sS'extra_flags'
p153
S'-D__SAM3X8E__ -mthumb {build.usb_flags}'
p154
sS'variant_system_lib'
p155
S'libsam_sam3x8e_gcc_rel.a'
p156
sS'usb_product'
p157
S'"Arduino Due"'
p158
sS'board'
p159
S'SAM_DUE'
p160
sS'ldscript'
p161
S'linker_scripts/gcc/flash.ld'
p162
sS'mcu'
p163
S'cortex-m3'
p164
ssg114
S'/usr/local/share/arduino/hardware/arduino/sam'
p165
saa(lp166
S'menu'
p167
a(dp168
S'cpu'
p169
S'Processor'
p170
sg114
S'/usr/local/share/arduino/hardware/arduino/avr'
p171
saa(lp172
S'yun'
p173
a(dp174
S'name'
p175
S'Arduino Y\xc3\xban'
p176
sS'vid'
p177
(dp178
S'1'
p179
S'0x2341'
p180
sg71
S'0x2341'
p181
ssS'pid'
p182
(dp183
g179
S'0x8041'
p184
sg71
S'0x0041'
p185
ssS'upload'
p186
(dp187
S'protocol'
p188
S'avr109'
p189
sS'disable_flushing'
p190
S'true'
p191
sS'tool'
p192
S'avrdude'
p193
sS'maximum_data_size'
p194
S'2560'
p195
sS'via_ssh'
p196
S'true'
p197
sS'maximum_size'
p198
S'28672'
p199
sS'use_1200bps_touch'
p200
S'true'
p201
sS'speed'
p202
S'57600'
p203
sS'wait_for_upload_port'
p204
S'true'
p205
ssS'build'
p206
(dp207
S'core'
p208
S'arduino'
p209
sS'f_cpu'
p210
S'16000000L'
p211
sS'vid'
p212
S'0x2341'
p213
sS'usb_product'
p214
S'"Arduino Yun"'
p215
sS'pid'
p216
S'0x8041'
p217
sS'extra_flags'
p218
S'{build.usb_flags}'
p219
sS'board'
p220
S'AVR_YUN'
p221
sS'mcu'
p222
S'atmega32u4'
p223
sS'variant'
p224
S'yun'
p225
ssg114
S'/usr/local/share/arduino/hardware/arduino/avr'
p226
sS'bootloader'
p227
(dp228
S'extended_fuses'
p229
S'0xfb'
p230
sS'high_fuses'
p231
S'0xd8'
p232
sS'low_fuses'
p233
S'0xff'
p234
sS'lock_bits'
p235
S'0x2F'
p236
sS'tool'
p237
S'avrdude'
p238
sS'file'
p239
S'caterina/Caterina-Yun.hex'
p240
sS'unlock_bits'
p241
S'0x3F'
p242
ssaa(lp243
S'uno'
p244
a(dp245
S'name'
p246
S'Arduino Uno'
p247
sS'vid'
p248
(dp249
g179
S'0x2341'
p250
sg71
S'0x2341'
p251
ssS'pid'
p252
(dp253
g179
S'0x0001'
p254
sg71
S'0x0043'
p255
ssS'upload'
p256
(dp257
S'speed'
p258
S'115200'
p259
sS'tool'
p260
S'avrdude'
p261
sS'protocol'
p262
S'arduino'
p263
sS'maximum_size'
p264
S'32256'
p265
sS'maximum_data_size'
p266
S'2048'
p267
ssS'build'
p268
(dp269
S'core'
p270
S'arduino'
p271
sS'mcu'
p272
S'atmega328p'
p273
sS'f_cpu'
p274
S'16000000L'
p275
sS'board'
p276
S'AVR_UNO'
p277
sS'variant'
p278
S'standard'
p279
ssg114
S'/usr/local/share/arduino/hardware/arduino/avr'
p280
sS'bootloader'
p281
(dp282
S'extended_fuses'
p283
S'0x05'
p284
sS'high_fuses'
p285
S'0xDE'
p286
sS'low_fuses'
p287
S'0xFF'
p288
sS'lock_bits'
p289
S'0x0F'
p290
sS'tool'
p291
S'avrdude'
p292
sS'file'
p293
S'optiboot/optiboot_atmega328.hex'
p294
sS'unlock_bits'
p295
S'0x3F'
p296
ssaa(lp297
S'diecimila'
p298
a(dp299
S'name'
p300
S'Arduino Duemilanove or Diecimila'
p301
sS'menu'
p302
(dp303
S'cpu'
p304
(dp305
S'atmega168'
p306
(dp307
S'bootloader'
p308
(dp309
S'extended_fuses'
p310
S'0x00'
p311
sS'high_fuses'
p312
S'0xdd'
p313
sS'file'
p314
S'atmega/ATmegaBOOT_168_diecimila.hex'
p315
ssS'upload'
p316
(dp317
S'maximum_size'
p318
S'14336'
p319
sS'speed'
p320
S'19200'
p321
sS'maximum_data_size'
p322
S'1024'
p323
ssS'_'
p324
S'ATmega168'
p325
sS'build'
p326
(dp327
S'mcu'
p328
S'atmega168'
p329
sssS'atmega328'
p330
(dp331
S'bootloader'
p332
(dp333
S'extended_fuses'
p334
S'0x05'
p335
sS'high_fuses'
p336
S'0xDA'
p337
sS'file'
p338
S'atmega/ATmegaBOOT_168_atmega328.hex'
p339
ssS'upload'
p340
(dp341
S'maximum_size'
p342
S'30720'
p343
sS'speed'
p344
S'57600'
p345
sS'maximum_data_size'
p346
S'2048'
p347
ssg324
S'ATmega328'
p348
sS'build'
p349
(dp350
S'mcu'
p351
S'atmega328p'
p352
sssssS'upload'
p353
(dp354
S'tool'
p355
S'avrdude'
p356
sS'protocol'
p357
S'arduino'
p358
ssS'build'
p359
(dp360
S'core'
p361
S'arduino'
p362
sS'f_cpu'
p363
S'16000000L'
p364
sS'board'
p365
S'AVR_DUEMILANOVE'
p366
sS'variant'
p367
S'standard'
p368
ssg114
S'/usr/local/share/arduino/hardware/arduino/avr'
p369
sS'bootloader'
p370
(dp371
S'low_fuses'
p372
S'0xFF'
p373
sS'lock_bits'
p374
S'0x0F'
p375
sS'tool'
p376
S'avrdude'
p377
sS'unlock_bits'
p378
S'0x3F'
p379
ssaa(lp380
S'nano'
p381
a(dp382
S'name'
p383
S'Arduino Nano'
p384
sS'menu'
p385
(dp386
S'cpu'
p387
(dp388
S'atmega168'
p389
(dp390
S'bootloader'
p391
(dp392
S'low_fuses'
p393
S'0xff'
p394
sS'extended_fuses'
p395
S'0x00'
p396
sS'high_fuses'
p397
S'0xdd'
p398
sS'file'
p399
S'atmega/ATmegaBOOT_168_diecimila.hex'
p400
ssS'upload'
p401
(dp402
S'maximum_size'
p403
S'14336'
p404
sS'speed'
p405
S'19200'
p406
sS'maximum_data_size'
p407
S'1024'
p408
ssg324
S'ATmega168'
p409
sS'build'
p410
(dp411
S'mcu'
p412
S'atmega168'
p413
sssS'atmega328'
p414
(dp415
S'bootloader'
p416
(dp417
S'low_fuses'
p418
S'0xFF'
p419
sS'extended_fuses'
p420
S'0x05'
p421
sS'high_fuses'
p422
S'0xDA'
p423
sS'file'
p424
S'atmega/ATmegaBOOT_168_atmega328.hex'
p425
ssS'upload'
p426
(dp427
S'maximum_size'
p428
S'30720'
p429
sS'speed'
p430
S'57600'
p431
sS'maximum_data_size'
p432
S'2048'
p433
ssg324
S'ATmega328'
p434
sS'build'
p435
(dp436
S'mcu'
p437
S'atmega328p'
p438
sssssS'upload'
p439
(dp440
S'tool'
p441
S'avrdude'
p442
sS'protocol'
p443
S'arduino'
p444
ssS'build'
p445
(dp446
S'core'
p447
S'arduino'
p448
sS'f_cpu'
p449
S'16000000L'
p450
sS'board'
p451
S'AVR_NANO'
p452
sS'variant'
p453
S'eightanaloginputs'
p454
ssg114
S'/usr/local/share/arduino/hardware/arduino/avr'
p455
sS'bootloader'
p456
(dp457
S'lock_bits'
p458
S'0x0F'
p459
sS'tool'
p460
S'avrdude'
p461
sS'unlock_bits'
p462
S'0x3F'
p463
ssaa(lp464
S'mega'
p465
a(dp466
S'name'
p467
S'Arduino Mega or Mega 2560'
p468
sS'vid'
p469
(dp470
g179
S'0x2341'
p471
sg71
S'0x2341'
p472
ssS'menu'
p473
(dp474
S'cpu'
p475
(dp476
S'atmega1280'
p477
(dp478
S'bootloader'
p479
(dp480
S'extended_fuses'
p481
S'0xF5'
p482
sS'high_fuses'
p483
S'0xDA'
p484
sS'file'
p485
S'atmega/ATmegaBOOT_168_atmega1280.hex'
p486
ssS'upload'
p487
(dp488
S'speed'
p489
S'57600'
p490
sS'maximum_size'
p491
S'126976'
p492
sS'protocol'
p493
S'arduino'
p494
ssg324
S'ATmega1280'
p495
sS'build'
p496
(dp497
S'mcu'
p498
S'atmega1280'
p499
sS'board'
p500
S'AVR_MEGA'
p501
sssS'atmega2560'
p502
(dp503
S'bootloader'
p504
(dp505
S'extended_fuses'
p506
S'0xFD'
p507
sS'high_fuses'
p508
S'0xD8'
p509
sS'file'
p510
S'stk500v2/stk500boot_v2_mega2560.hex'
p511
ssS'upload'
p512
(dp513
S'speed'
p514
S'115200'
p515
sS'maximum_size'
p516
S'253952'
p517
sS'protocol'
p518
S'wiring'
p519
ssg324
S'ATmega2560 (Mega 2560)'
p520
sS'build'
p521
(dp522
S'mcu'
p523
S'atmega2560'
p524
sS'board'
p525
S'AVR_MEGA2560'
p526
sssssS'pid'
p527
(dp528
g179
S'0x0042'
p529
sg71
S'0x0010'
p530
ssS'upload'
p531
(dp532
S'tool'
p533
S'avrdude'
p534
sS'maximum_data_size'
p535
S'8192'
p536
ssS'build'
p537
(dp538
S'core'
p539
S'arduino'
p540
sS'f_cpu'
p541
S'16000000L'
p542
sS'board'
p543
S'AVR_MEGA2560'
p544
sS'variant'
p545
S'mega'
p546
ssg114
S'/usr/local/share/arduino/hardware/arduino/avr'
p547
sS'bootloader'
p548
(dp549
S'low_fuses'
p550
S'0xFF'
p551
sS'lock_bits'
p552
S'0x0F'
p553
sS'tool'
p554
S'avrdude'
p555
sS'unlock_bits'
p556
S'0x3F'
p557
ssaa(lp558
S'megaADK'
p559
a(dp560
S'name'
p561
S'Arduino Mega ADK'
p562
sS'vid'
p563
(dp564
g179
S'0x2341'
p565
sg71
S'0x2341'
p566
ssS'pid'
p567
(dp568
g179
S'0x0044'
p569
sg71
S'0x003f'
p570
ssS'upload'
p571
(dp572
S'speed'
p573
S'115200'
p574
sS'tool'
p575
S'avrdude'
p576
sS'protocol'
p577
S'wiring'
p578
sS'maximum_size'
p579
S'253952'
p580
sS'maximum_data_size'
p581
S'8192'
p582
ssS'build'
p583
(dp584
S'core'
p585
S'arduino'
p586
sS'mcu'
p587
S'atmega2560'
p588
sS'f_cpu'
p589
S'16000000L'
p590
sS'board'
p591
S'AVR_ADK'
p592
sS'variant'
p593
S'mega'
p594
ssg114
S'/usr/local/share/arduino/hardware/arduino/avr'
p595
sS'bootloader'
p596
(dp597
S'extended_fuses'
p598
S'0xFD'
p599
sS'high_fuses'
p600
S'0xD8'
p601
sS'low_fuses'
p602
S'0xFF'
p603
sS'lock_bits'
p604
S'0x0F'
p605
sS'tool'
p606
S'avrdude'
p607
sS'file'
p608
S'stk500v2/stk500boot_v2_mega2560.hex'
p609
sS'unlock_bits'
p610
S'0x3F'
p611
ssaa(lp612
S'leonardo'
p613
a(dp614
S'name'
p615
S'Arduino Leonardo'
p616
sS'vid'
p617
(dp618
g179
S'0x2341'
p619
sg71
S'0x2341'
p620
ssS'pid'
p621
(dp622
g179
S'0x8036'
p623
sg71
S'0x0036'
p624
ssS'upload'
p625
(dp626
S'protocol'
p627
S'avr109'
p628
sS'disable_flushing'
p629
S'true'
p630
sS'tool'
p631
S'avrdude'
p632
sS'maximum_data_size'
p633
S'2560'
p634
sS'maximum_size'
p635
S'28672'
p636
sS'use_1200bps_touch'
p637
S'true'
p638
sS'speed'
p639
S'57600'
p640
sS'wait_for_upload_port'
p641
S'true'
p642
ssS'build'
p643
(dp644
S'core'
p645
S'arduino'
p646
sS'f_cpu'
p647
S'16000000L'
p648
sS'vid'
p649
S'0x2341'
p650
sS'usb_product'
p651
S'"Arduino Leonardo"'
p652
sS'pid'
p653
S'0x8036'
p654
sS'extra_flags'
p655
S'{build.usb_flags}'
p656
sS'board'
p657
S'AVR_LEONARDO'
p658
sS'mcu'
p659
S'atmega32u4'
p660
sS'variant'
p661
S'leonardo'
p662
ssg114
S'/usr/local/share/arduino/hardware/arduino/avr'
p663
sS'bootloader'
p664
(dp665
S'extended_fuses'
p666
S'0xcb'
p667
sS'high_fuses'
p668
S'0xd8'
p669
sS'low_fuses'
p670
S'0xff'
p671
sS'lock_bits'
p672
S'0x2F'
p673
sS'tool'
p674
S'avrdude'
p675
sS'file'
p676
S'caterina/Caterina-Leonardo.hex'
p677
sS'unlock_bits'
p678
S'0x3F'
p679
ssaa(lp680
S'micro'
p681
a(dp682
S'bootloader'
p683
(dp684
S'extended_fuses'
p685
S'0xcb'
p686
sS'high_fuses'
p687
S'0xd8'
p688
sS'low_fuses'
p689
S'0xff'
p690
sS'lock_bits'
p691
S'0x2F'
p692
sS'tool'
p693
S'avrdude'
p694
sS'file'
p695
S'caterina/Caterina-Micro.hex'
p696
sS'unlock_bits'
p697
S'0x3F'
p698
ssS'upload'
p699
(dp700
S'protocol'
p701
S'avr109'
p702
sS'disable_flushing'
p703
S'true'
p704
sS'tool'
p705
S'avrdude'
p706
sS'maximum_data_size'
p707
S'2560'
p708
sS'maximum_size'
p709
S'28672'
p710
sS'use_1200bps_touch'
p711
S'true'
p712
sS'speed'
p713
S'57600'
p714
sS'wait_for_upload_port'
p715
S'true'
p716
ssS'build'
p717
(dp718
S'core'
p719
S'arduino'
p720
sS'f_cpu'
p721
S'16000000L'
p722
sS'vid'
p723
S'0x2341'
p724
sS'usb_product'
p725
S'"Arduino Micro"'
p726
sS'pid'
p727
S'0x8037'
p728
sS'extra_flags'
p729
S'{build.usb_flags}'
p730
sS'board'
p731
S'AVR_MICRO'
p732
sS'mcu'
p733
S'atmega32u4'
p734
sS'variant'
p735
S'micro'
p736
ssS'name'
p737
S'Arduino Micro'
p738
sg114
S'/usr/local/share/arduino/hardware/arduino/avr'
p739
saa(lp740
S'esplora'
p741
a(dp742
S'name'
p743
S'Arduino Esplora'
p744
sS'vid'
p745
(dp746
g179
S'0x2341'
p747
sg71
S'0x2341'
p748
ssS'pid'
p749
(dp750
g179
S'0x803c'
p751
sg71
S'0x003c'
p752
ssS'upload'
p753
(dp754
S'protocol'
p755
S'avr109'
p756
sS'disable_flushing'
p757
S'true'
p758
sS'tool'
p759
S'avrdude'
p760
sS'maximum_data_size'
p761
S'2560'
p762
sS'maximum_size'
p763
S'28672'
p764
sS'use_1200bps_touch'
p765
S'true'
p766
sS'speed'
p767
S'57600'
p768
sS'wait_for_upload_port'
p769
S'true'
p770
ssS'build'
p771
(dp772
S'core'
p773
S'arduino'
p774
sS'f_cpu'
p775
S'16000000L'
p776
sS'vid'
p777
S'0x2341'
p778
sS'usb_product'
p779
S'"Arduino Esplora"'
p780
sS'pid'
p781
S'0x803c'
p782
sS'extra_flags'
p783
S'{build.usb_flags}'
p784
sS'board'
p785
S'AVR_ESPLORA'
p786
sS'mcu'
p787
S'atmega32u4'
p788
sS'variant'
p789
S'leonardo'
p790
ssg114
S'/usr/local/share/arduino/hardware/arduino/avr'
p791
sS'bootloader'
p792
(dp793
S'extended_fuses'
p794
S'0xcb'
p795
sS'high_fuses'
p796
S'0xd8'
p797
sS'low_fuses'
p798
S'0xff'
p799
sS'lock_bits'
p800
S'0x2F'
p801
sS'tool'
p802
S'avrdude'
p803
sS'file'
p804
S'caterina/Caterina-Esplora.hex'
p805
sS'unlock_bits'
p806
S'0x3F'
p807
ssaa(lp808
S'mini'
p809
a(dp810
S'name'
p811
S'Arduino Mini'
p812
sS'menu'
p813
(dp814
S'cpu'
p815
(dp816
S'atmega168'
p817
(dp818
S'bootloader'
p819
(dp820
S'extended_fuses'
p821
S'0x00'
p822
sS'high_fuses'
p823
S'0xdd'
p824
sS'file'
p825
S'atmega/ATmegaBOOT_168_ng.hex'
p826
ssS'upload'
p827
(dp828
S'maximum_size'
p829
S'14336'
p830
sS'speed'
p831
S'19200'
p832
sS'maximum_data_size'
p833
S'1024'
p834
ssg324
S'ATmega168'
p835
sS'build'
p836
(dp837
S'mcu'
p838
S'atmega168'
p839
sssS'atmega328'
p840
(dp841
S'bootloader'
p842
(dp843
S'extended_fuses'
p844
S'0x05'
p845
sS'high_fuses'
p846
S'0xd8'
p847
sS'file'
p848
S'optiboot/optiboot_atmega328-Mini.hex'
p849
ssS'upload'
p850
(dp851
S'maximum_size'
p852
S'28672'
p853
sS'speed'
p854
S'115200'
p855
sS'maximum_data_size'
p856
S'2048'
p857
ssg324
S'ATmega328'
p858
sS'build'
p859
(dp860
S'mcu'
p861
S'atmega328p'
p862
sssssS'upload'
p863
(dp864
S'tool'
p865
S'avrdude'
p866
sS'protocol'
p867
S'arduino'
p868
ssS'build'
p869
(dp870
S'core'
p871
S'arduino'
p872
sS'f_cpu'
p873
S'16000000L'
p874
sS'board'
p875
S'AVR_MINI'
p876
sS'variant'
p877
S'eightanaloginputs'
p878
ssg114
S'/usr/local/share/arduino/hardware/arduino/avr'
p879
sS'bootloader'
p880
(dp881
S'low_fuses'
p882
S'0xff'
p883
sS'lock_bits'
p884
S'0x0F'
p885
sS'tool'
p886
S'avrdude'
p887
sS'unlock_bits'
p888
S'0x3F'
p889
ssaa(lp890
S'ethernet'
p891
a(dp892
S'bootloader'
p893
(dp894
S'extended_fuses'
p895
S'0x05'
p896
sS'high_fuses'
p897
S'0xde'
p898
sS'low_fuses'
p899
S'0xff'
p900
sS'lock_bits'
p901
S'0x0F'
p902
sS'tool'
p903
S'avrdude'
p904
sS'file'
p905
S'optiboot/optiboot_atmega328.hex'
p906
sS'unlock_bits'
p907
S'0x3F'
p908
ssS'upload'
p909
(dp910
S'speed'
p911
S'115200'
p912
sS'tool'
p913
S'avrdude'
p914
sS'protocol'
p915
S'arduino'
p916
sS'maximum_size'
p917
S'32256'
p918
sS'maximum_data_size'
p919
S'2048'
p920
ssS'build'
p921
(dp922
S'f_cpu'
p923
S'16000000L'
p924
sS'mcu'
p925
S'atmega328p'
p926
sS'variant'
p927
S'ethernet'
p928
sS'board'
p929
S'AVR_ETHERNET'
p930
sS'core'
p931
S'arduino'
p932
ssS'name'
p933
S'Arduino Ethernet'
p934
sg114
S'/usr/local/share/arduino/hardware/arduino/avr'
p935
saa(lp936
S'fio'
p937
a(dp938
S'bootloader'
p939
(dp940
S'extended_fuses'
p941
S'0x05'
p942
sS'high_fuses'
p943
S'0xDA'
p944
sS'low_fuses'
p945
S'0xFF'
p946
sS'lock_bits'
p947
S'0x0F'
p948
sS'tool'
p949
S'avrdude'
p950
sS'file'
p951
S'atmega/ATmegaBOOT_168_atmega328_pro_8MHz.hex'
p952
sS'unlock_bits'
p953
S'0x3F'
p954
ssS'upload'
p955
(dp956
S'speed'
p957
S'57600'
p958
sS'tool'
p959
S'avrdude'
p960
sS'protocol'
p961
S'arduino'
p962
sS'maximum_size'
p963
S'30720'
p964
sS'maximum_data_size'
p965
S'2048'
p966
ssS'build'
p967
(dp968
S'core'
p969
S'arduino'
p970
sS'mcu'
p971
S'atmega328p'
p972
sS'f_cpu'
p973
S'8000000L'
p974
sS'board'
p975
S'AVR_FIO'
p976
sS'variant'
p977
S'eightanaloginputs'
p978
ssS'name'
p979
S'Arduino Fio'
p980
sg114
S'/usr/local/share/arduino/hardware/arduino/avr'
p981
saa(lp982
S'bt'
p983
a(dp984
S'name'
p985
S'Arduino BT'
p986
sS'menu'
p987
(dp988
S'cpu'
p989
(dp990
S'atmega168'
p991
(dp992
S'bootloader'
p993
(dp994
S'extended_fuses'
p995
S'0x00'
p996
sS'high_fuses'
p997
S'0xdd'
p998
sS'file'
p999
S'bt/ATmegaBOOT_168.hex'
p1000
ssS'upload'
p1001
(dp1002
S'maximum_size'
p1003
S'14336'
p1004
sS'maximum_data_size'
p1005
S'1024'
p1006
ssg324
S'ATmega168'
p1007
sS'build'
p1008
(dp1009
S'mcu'
p1010
S'atmega168'
p1011
sssS'atmega328'
p1012
(dp1013
S'bootloader'
p1014
(dp1015
S'extended_fuses'
p1016
S'0x05'
p1017
sS'high_fuses'
p1018
S'0xd8'
p1019
sS'file'
p1020
S'bt/ATmegaBOOT_168_atmega328_bt.hex'
p1021
ssS'upload'
p1022
(dp1023
S'maximum_size'
p1024
S'28672'
p1025
sS'maximum_data_size'
p1026
S'2048'
p1027
ssg324
S'ATmega328'
p1028
sS'build'
p1029
(dp1030
S'mcu'
p1031
S'atmega328p'
p1032
sssssS'upload'
p1033
(dp1034
S'speed'
p1035
S'19200'
p1036
sS'tool'
p1037
S'avrdude'
p1038
sS'protocol'
p1039
S'arduino'
p1040
sS'disable_flushing'
p1041
S'true'
p1042
ssS'build'
p1043
(dp1044
S'core'
p1045
S'arduino'
p1046
sS'f_cpu'
p1047
S'16000000L'
p1048
sS'board'
p1049
S'AVR_BT'
p1050
sS'variant'
p1051
S'eightanaloginputs'
p1052
ssg114
S'/usr/local/share/arduino/hardware/arduino/avr'
p1053
sS'bootloader'
p1054
(dp1055
S'low_fuses'
p1056
S'0xff'
p1057
sS'lock_bits'
p1058
S'0x0F'
p1059
sS'tool'
p1060
S'avrdude'
p1061
sS'unlock_bits'
p1062
S'0x3F'
p1063
ssaa(lp1064
S'LilyPadUSB'
p1065
a(dp1066
S'bootloader'
p1067
(dp1068
S'extended_fuses'
p1069
S'0xce'
p1070
sS'high_fuses'
p1071
S'0xd8'
p1072
sS'low_fuses'
p1073
S'0xff'
p1074
sS'lock_bits'
p1075
S'0x2F'
p1076
sS'tool'
p1077
S'avrdude'
p1078
sS'file'
p1079
S'caterina-LilyPadUSB/Caterina-LilyPadUSB.hex'
p1080
sS'unlock_bits'
p1081
S'0x3F'
p1082
ssS'upload'
p1083
(dp1084
S'protocol'
p1085
S'avr109'
p1086
sS'disable_flushing'
p1087
S'true'
p1088
sS'tool'
p1089
S'avrdude'
p1090
sS'maximum_data_size'
p1091
S'2560'
p1092
sS'maximum_size'
p1093
S'28672'
p1094
sS'use_1200bps_touch'
p1095
S'true'
p1096
sS'speed'
p1097
S'57600'
p1098
sS'wait_for_upload_port'
p1099
S'true'
p1100
ssS'build'
p1101
(dp1102
S'core'
p1103
S'arduino'
p1104
sS'f_cpu'
p1105
S'8000000L'
p1106
sS'vid'
p1107
S'0x1B4F'
p1108
sS'usb_product'
p1109
S'"LilyPad USB"'
p1110
sS'pid'
p1111
S'0x9208'
p1112
sS'extra_flags'
p1113
S'{build.usb_flags}'
p1114
sS'board'
p1115
S'AVR_LILYPAD_USB'
p1116
sS'mcu'
p1117
S'atmega32u4'
p1118
sS'variant'
p1119
S'leonardo'
p1120
ssS'name'
p1121
S'LilyPad Arduino USB'
p1122
sg114
S'/usr/local/share/arduino/hardware/arduino/avr'
p1123
saa(lp1124
S'lilypad'
p1125
a(dp1126
S'name'
p1127
S'LilyPad Arduino'
p1128
sS'menu'
p1129
(dp1130
S'cpu'
p1131
(dp1132
S'atmega168'
p1133
(dp1134
S'bootloader'
p1135
(dp1136
S'low_fuses'
p1137
S'0xe2'
p1138
sS'extended_fuses'
p1139
S'0x00'
p1140
sS'high_fuses'
p1141
S'0xdd'
p1142
sS'file'
p1143
S'lilypad/LilyPadBOOT_168.hex'
p1144
ssS'upload'
p1145
(dp1146
S'maximum_size'
p1147
S'14336'
p1148
sS'speed'
p1149
S'19200'
p1150
sS'maximum_data_size'
p1151
S'1024'
p1152
ssg324
S'ATmega168'
p1153
sS'build'
p1154
(dp1155
S'mcu'
p1156
S'atmega168'
p1157
sssS'atmega328'
p1158
(dp1159
S'bootloader'
p1160
(dp1161
S'low_fuses'
p1162
S'0xFF'
p1163
sS'extended_fuses'
p1164
S'0x05'
p1165
sS'high_fuses'
p1166
S'0xDA'
p1167
sS'file'
p1168
S'atmega/ATmegaBOOT_168_atmega328_pro_8MHz.hex'
p1169
ssS'upload'
p1170
(dp1171
S'maximum_size'
p1172
S'30720'
p1173
sS'speed'
p1174
S'57600'
p1175
sS'maximum_data_size'
p1176
S'2048'
p1177
ssg324
S'ATmega328'
p1178
sS'build'
p1179
(dp1180
S'mcu'
p1181
S'atmega328p'
p1182
sssssS'upload'
p1183
(dp1184
S'tool'
p1185
S'avrdude'
p1186
sS'protocol'
p1187
S'arduino'
p1188
ssS'build'
p1189
(dp1190
S'core'
p1191
S'arduino'
p1192
sS'f_cpu'
p1193
S'8000000L'
p1194
sS'board'
p1195
S'AVR_LILYPAD'
p1196
sS'variant'
p1197
S'standard'
p1198
ssg114
S'/usr/local/share/arduino/hardware/arduino/avr'
p1199
sS'bootloader'
p1200
(dp1201
S'lock_bits'
p1202
S'0x0F'
p1203
sS'tool'
p1204
S'avrdude'
p1205
sS'unlock_bits'
p1206
S'0x3F'
p1207
ssaa(lp1208
S'pro'
p1209
a(dp1210
S'name'
p1211
S'Arduino Pro or Pro Mini'
p1212
sS'menu'
p1213
(dp1214
S'cpu'
p1215
(dp1216
S'16MHzatmega328'
p1217
(dp1218
S'bootloader'
p1219
(dp1220
S'low_fuses'
p1221
S'0xFF'
p1222
sS'extended_fuses'
p1223
S'0x05'
p1224
sS'high_fuses'
p1225
S'0xDA'
p1226
sS'file'
p1227
S'atmega/ATmegaBOOT_168_atmega328.hex'
p1228
ssS'upload'
p1229
(dp1230
S'maximum_size'
p1231
S'30720'
p1232
sS'speed'
p1233
S'57600'
p1234
sS'maximum_data_size'
p1235
S'2048'
p1236
ssg324
S'ATmega328 (5V, 16 MHz)'
p1237
sS'build'
p1238
(dp1239
S'mcu'
p1240
S'atmega328p'
p1241
sS'f_cpu'
p1242
S'16000000L'
p1243
sssS'8MHzatmega328'
p1244
(dp1245
S'bootloader'
p1246
(dp1247
S'low_fuses'
p1248
S'0xFF'
p1249
sS'extended_fuses'
p1250
S'0x05'
p1251
sS'high_fuses'
p1252
S'0xDA'
p1253
sS'file'
p1254
S'atmega/ATmegaBOOT_168_atmega328_pro_8MHz.hex'
p1255
ssS'upload'
p1256
(dp1257
S'maximum_size'
p1258
S'30720'
p1259
sS'speed'
p1260
S'57600'
p1261
sS'maximum_data_size'
p1262
S'2048'
p1263
ssg324
S'ATmega328 (3.3V, 8 MHz)'
p1264
sS'build'
p1265
(dp1266
S'mcu'
p1267
S'atmega328p'
p1268
sS'f_cpu'
p1269
S'8000000L'
p1270
sssS'8MHzatmega168'
p1271
(dp1272
S'bootloader'
p1273
(dp1274
S'low_fuses'
p1275
S'0xc6'
p1276
sS'extended_fuses'
p1277
S'0x00'
p1278
sS'high_fuses'
p1279
S'0xdd'
p1280
sS'file'
p1281
S'atmega/ATmegaBOOT_168_pro_8MHz.hex'
p1282
ssS'upload'
p1283
(dp1284
S'maximum_size'
p1285
S'14336'
p1286
sS'speed'
p1287
S'19200'
p1288
sS'maximum_data_size'
p1289
S'1024'
p1290
ssg324
S'ATmega168 (3.3V, 8 MHz)'
p1291
sS'build'
p1292
(dp1293
S'mcu'
p1294
S'atmega168'
p1295
sS'f_cpu'
p1296
S'8000000L'
p1297
sssS'16MHzatmega168'
p1298
(dp1299
S'bootloader'
p1300
(dp1301
S'low_fuses'
p1302
S'0xff'
p1303
sS'extended_fuses'
p1304
S'0x00'
p1305
sS'high_fuses'
p1306
S'0xdd'
p1307
sS'file'
p1308
S'atmega/ATmegaBOOT_168_diecimila.hex'
p1309
ssS'upload'
p1310
(dp1311
S'maximum_size'
p1312
S'14336'
p1313
sS'speed'
p1314
S'19200'
p1315
sS'maximum_data_size'
p1316
S'1024'
p1317
ssg324
S'ATmega168 (5V, 16 MHz)'
p1318
sS'build'
p1319
(dp1320
S'mcu'
p1321
S'atmega168'
p1322
sS'f_cpu'
p1323
S'16000000L'
p1324
sssssS'upload'
p1325
(dp1326
S'tool'
p1327
S'avrdude'
p1328
sS'protocol'
p1329
S'arduino'
p1330
ssS'build'
p1331
(dp1332
S'core'
p1333
S'arduino'
p1334
sS'variant'
p1335
S'eightanaloginputs'
p1336
sS'board'
p1337
S'AVR_PRO'
p1338
ssg114
S'/usr/local/share/arduino/hardware/arduino/avr'
p1339
sS'bootloader'
p1340
(dp1341
S'lock_bits'
p1342
S'0x0F'
p1343
sS'tool'
p1344
S'avrdude'
p1345
sS'unlock_bits'
p1346
S'0x3F'
p1347
ssaa(lp1348
S'atmegang'
p1349
a(dp1350
S'name'
p1351
S'Arduino NG or older'
p1352
sS'menu'
p1353
(dp1354
S'cpu'
p1355
(dp1356
S'atmega168'
p1357
(dp1358
S'bootloader'
p1359
(dp1360
S'low_fuses'
p1361
S'0xff'
p1362
sS'extended_fuses'
p1363
S'0x00'
p1364
sS'high_fuses'
p1365
S'0xdd'
p1366
sS'file'
p1367
S'atmega/ATmegaBOOT_168_ng.hex'
p1368
ssS'upload'
p1369
(dp1370
S'maximum_size'
p1371
S'14336'
p1372
sS'maximum_data_size'
p1373
S'1024'
p1374
ssg324
S'ATmega168'
p1375
sS'build'
p1376
(dp1377
S'mcu'
p1378
S'atmega168'
p1379
sssS'atmega8'
p1380
(dp1381
S'bootloader'
p1382
(dp1383
S'low_fuses'
p1384
S'0xdf'
p1385
sS'high_fuses'
p1386
S'0xca'
p1387
sS'file'
p1388
S'atmega8/ATmegaBOOT-prod-firmware-2009-11-07.hex'
p1389
ssS'upload'
p1390
(dp1391
S'maximum_size'
p1392
S'7168'
p1393
sS'maximum_data_size'
p1394
S'1024'
p1395
ssg324
S'ATmega8'
p1396
sS'build'
p1397
(dp1398
S'mcu'
p1399
S'atmega8'
p1400
sssssS'upload'
p1401
(dp1402
S'speed'
p1403
S'19200'
p1404
sS'tool'
p1405
S'avrdude'
p1406
sS'protocol'
p1407
S'arduino'
p1408
ssS'build'
p1409
(dp1410
S'core'
p1411
S'arduino'
p1412
sS'mcu'
p1413
S'atmegang'
p1414
sS'f_cpu'
p1415
S'16000000L'
p1416
sS'board'
p1417
S'AVR_NG'
p1418
sS'variant'
p1419
S'standard'
p1420
ssg114
S'/usr/local/share/arduino/hardware/arduino/avr'
p1421
sS'bootloader'
p1422
(dp1423
S'lock_bits'
p1424
S'0x0F'
p1425
sS'tool'
p1426
S'avrdude'
p1427
sS'unlock_bits'
p1428
S'0x3F'
p1429
ssaa(lp1430
S'robotControl'
p1431
a(dp1432
S'bootloader'
p1433
(dp1434
S'extended_fuses'
p1435
S'0xcb'
p1436
sS'high_fuses'
p1437
S'0xd8'
p1438
sS'low_fuses'
p1439
S'0xff'
p1440
sS'lock_bits'
p1441
S'0x2F'
p1442
sS'tool'
p1443
S'avrdude'
p1444
sS'file'
p1445
S'caterina-Arduino_Robot/Caterina-Robot-Control.hex'
p1446
sS'unlock_bits'
p1447
S'0x3F'
p1448
ssS'upload'
p1449
(dp1450
S'protocol'
p1451
S'avr109'
p1452
sS'disable_flushing'
p1453
S'true'
p1454
sS'tool'
p1455
S'avrdude'
p1456
sS'maximum_data_size'
p1457
S'2560'
p1458
sS'maximum_size'
p1459
S'28672'
p1460
sS'use_1200bps_touch'
p1461
S'true'
p1462
sS'speed'
p1463
S'57600'
p1464
sS'wait_for_upload_port'
p1465
S'true'
p1466
ssS'build'
p1467
(dp1468
S'core'
p1469
S'arduino'
p1470
sS'f_cpu'
p1471
S'16000000L'
p1472
sS'vid'
p1473
S'0x2341'
p1474
sS'usb_product'
p1475
S'"Robot Control"'
p1476
sS'pid'
p1477
S'0x8038'
p1478
sS'extra_flags'
p1479
S'{build.usb_flags}'
p1480
sS'board'
p1481
S'AVR_ROBOT_CONTROL'
p1482
sS'mcu'
p1483
S'atmega32u4'
p1484
sS'variant'
p1485
S'robot_control'
p1486
ssS'name'
p1487
S'Arduino Robot Control'
p1488
sg114
S'/usr/local/share/arduino/hardware/arduino/avr'
p1489
saa(lp1490
S'robotMotor'
p1491
a(dp1492
S'bootloader'
p1493
(dp1494
S'extended_fuses'
p1495
S'0xcb'
p1496
sS'high_fuses'
p1497
S'0xd8'
p1498
sS'low_fuses'
p1499
S'0xff'
p1500
sS'lock_bits'
p1501
S'0x2F'
p1502
sS'tool'
p1503
S'avrdude'
p1504
sS'file'
p1505
S'caterina-Arduino_Robot/Caterina-Robot-Motor.hex'
p1506
sS'unlock_bits'
p1507
S'0x3F'
p1508
ssS'upload'
p1509
(dp1510
S'protocol'
p1511
S'avr109'
p1512
sS'disable_flushing'
p1513
S'true'
p1514
sS'tool'
p1515
S'avrdude'
p1516
sS'maximum_data_size'
p1517
S'2560'
p1518
sS'maximum_size'
p1519
S'28672'
p1520
sS'use_1200bps_touch'
p1521
S'true'
p1522
sS'speed'
p1523
S'57600'
p1524
sS'wait_for_upload_port'
p1525
S'true'
p1526
ssS'build'
p1527
(dp1528
S'core'
p1529
S'arduino'
p1530
sS'f_cpu'
p1531
S'16000000L'
p1532
sS'vid'
p1533
S'0x2341'
p1534
sS'usb_product'
p1535
S'"Robot Motor"'
p1536
sS'pid'
p1537
S'0x8039'
p1538
sS'extra_flags'
p1539
S'{build.usb_flags}'
p1540
sS'board'
p1541
S'AVR_ROBOT_MOTOR'
p1542
sS'mcu'
p1543
S'atmega32u4'
p1544
sS'variant'
p1545
S'robot_motor'
p1546
ssS'name'
p1547
S'Arduino Robot Motor'
p1548
sg114
S'/usr/local/share/arduino/hardware/arduino/avr'
p1549
saatp1550
Rp1551
(dp1552
S'default'
p1553
S'uno'
p1554
sbtp1555
a(S'used_libs'
p1556
(lp1557
S'lib/Queue'
p1558
aS'/usr/local/share/arduino/hardware/arduino/avr/cores/arduino'
p1559
atp1560
a(S'make'
p1561
S'/usr/bin/make'
p1562
tp1563
a(S'arduino_libraries_dir'
p1564
S'/usr/local/share/arduino/libraries'
p1565
tp1566
a(S'cc'
p1567
S'/usr/local/share/arduino/hardware/tools/avr/bin/avr-gcc'
p1568
tp1569
a(S'cflags'
p1570
g2
(g3
g4
(lp1571
tp1572
Rp1573
tp1574
a(S'cxxflags'
p1575
g2
(g3
g4
(lp1576
S'-fno-exceptions'
p1577
atp1578
Rp1579
tp1580
a(S'arduino_variants_dir'
p1581
S'/usr/local/share/arduino/hardware/arduino/avr/variants'
p1582
tp1583
a(S'serial'
p1584
S'/usr/bin/picocom'
p1585
tp1586
a(S'stty'
p1587
S'/bin/stty'
p1588
tp1589
a(S'version.txt'
p1590
S'/usr/local/share/arduino/lib/version.txt'
p1591
tp1592
a(S'arduino_core_dir'
p1593
g1559
tp1594
a(S'boards.txt'
p1595
(lp1596
S'/usr/local/share/arduino/hardware/arduino/sam/boards.txt'
p1597
aS'/usr/local/share/arduino/hardware/arduino/avr/boards.txt'
p1598
atp1599
a(S'avrdude.conf'
p1600
S'/usr/local/share/arduino/hardware/tools/avr/etc/avrdude.conf'
p1601
tp1602
a(g39
g2
(g3
g4
(lp1603
S'.build/uno/src/dependencies.d'
p1604
aS'.build/uno/Queue/dependencies.d'
p1605
aS'.build/uno/arduino/dependencies.d'
p1606
atp1607
Rp1608
tp1609
a.