(lp0
(S'cppflags'
p1
ccopy_reg
_reconstructor
p2
(cino.utils
SpaceList
p3
c__builtin__
list
p4
(lp5
S'-mmcu=atmega328p'
p6
aS'-DF_CPU=16000000L'
p7
aS'-DARDUINO=160'
p8
aS'-I/usr/local/share/arduino/hardware/arduino/avr/cores/arduino'
p9
aS'-ffunction-sections'
p10
aS'-fdata-sections'
p11
aS'-g'
p12
aS'-Os'
p13
aS'-w'
p14
aS'-I/usr/local/share/arduino/hardware/arduino/avr/variants/standard'
p15
aS'-I/usr/local/share/arduino/hardware/arduino/avr/cores/arduino'
p16
atp17
Rp18
tp19
a(S'cxx'
p20
S'/usr/local/share/arduino/hardware/tools/avr/bin/avr-g++'
p21
tp22
a(S'build_dir'
p23
S'.build/uno'
p24
tp25
a(S'avrdude'
p26
S'/usr/local/share/arduino/hardware/tools/avr/bin/avrdude'
p27
tp28
a(S'ar'
p29
S'/usr/local/share/arduino/hardware/tools/avr/bin/avr-ar'
p30
tp31
a(S'names'
p32
(dp33
S'cpp'
p34
S'%s.cpp'
p35
sS'obj'
p36
S'%s.o'
p37
sS'deps'
p38
S'%s.d'
p39
sS'lib'
p40
S'lib%s.a'
p41
stp42
a(S'ldflags'
p43
g2
(g3
g4
(lp44
g6
aS'-Wl,-Os'
p45
aS'-Wl,--gc-sections'
p46
atp47
Rp48
tp49
a(S'arduino_lib_version'
p50
g2
(cino.environment
Version
p51
c__builtin__
tuple
p52
(I1
I6
I0
tp53
tp54
Rp55
tp56
a(S'objcopy'
p57
S'/usr/local/share/arduino/hardware/tools/avr/bin/avr-objcopy'
p58
tp59
a(S'board_models'
p60
cino.environment
BoardModels
p61
((lp62
(lp63
S'arduino_due_x_dbg'
p64
a(dp65
S'name'
p66
S'Arduino Due (Programming Port)'
p67
sS'vid'
p68
(dp69
S'0'
p70
S'0x2341'
p71
ssS'pid'
p72
(dp73
g70
S'0x003d'
p74
ssS'upload'
p75
(dp76
S'protocol'
p77
S'sam-ba'
p78
sS'wait_for_upload_port'
p79
S'false'
p80
sS'tool'
p81
S'bossac'
p82
sS'native_usb'
p83
S'false'
p84
sS'maximum_size'
p85
S'524288'
p86
sS'use_1200bps_touch'
p87
S'true'
p88
ssS'build'
p89
(dp90
S'core'
p91
S'arduino'
p92
sS'f_cpu'
p93
S'84000000L'
p94
sS'vid'
p95
S'0x2341'
p96
sS'pid'
p97
S'0x003e'
p98
sS'variant'
p99
S'arduino_due_x'
p100
sS'extra_flags'
p101
S'-D__SAM3X8E__ -mthumb {build.usb_flags}'
p102
sS'variant_system_lib'
p103
S'libsam_sam3x8e_gcc_rel.a'
p104
sS'usb_product'
p105
S'"Arduino Due"'
p106
sS'board'
p107
S'SAM_DUE'
p108
sS'ldscript'
p109
S'linker_scripts/gcc/flash.ld'
p110
sS'mcu'
p111
S'cortex-m3'
p112
ssS'_coredir'
p113
S'/usr/local/share/arduino/hardware/arduino/sam'
p114
saa(lp115
S'arduino_due_x'
p116
a(dp117
S'name'
p118
S'Arduino Due (Native USB Port)'
p119
sS'vid'
p120
(dp121
g70
S'0x2341'
p122
ssS'pid'
p123
(dp124
g70
S'0x003e'
p125
ssS'upload'
p126
(dp127
S'protocol'
p128
S'sam-ba'
p129
sS'wait_for_upload_port'
p130
S'true'
p131
sS'tool'
p132
S'bossac'
p133
sS'native_usb'
p134
S'true'
p135
sS'maximum_size'
p136
S'524288'
p137
sS'use_1200bps_touch'
p138
S'true'
p139
ssS'build'
p140
(dp141
S'core'
p142
S'arduino'
p143
sS'f_cpu'
p144
S'84000000L'
p145
sS'vid'
p146
S'0x2341'
p147
sS'pid'
p148
S'0x003e'
p149
sS'variant'
p150
S'arduino_due_x'
p151
sS'extra_flags'
p152
S'-D__SAM3X8E__ -mthumb {build.usb_flags}'
p153
sS'variant_system_lib'
p154
S'libsam_sam3x8e_gcc_rel.a'
p155
sS'usb_product'
p156
S'"Arduino Due"'
p157
sS'board'
p158
S'SAM_DUE'
p159
sS'ldscript'
p160
S'linker_scripts/gcc/flash.ld'
p161
sS'mcu'
p162
S'cortex-m3'
p163
ssg113
S'/usr/local/share/arduino/hardware/arduino/sam'
p164
saa(lp165
S'menu'
p166
a(dp167
S'cpu'
p168
S'Processor'
p169
sg113
S'/usr/local/share/arduino/hardware/arduino/avr'
p170
saa(lp171
S'yun'
p172
a(dp173
S'name'
p174
S'Arduino Y\xc3\xban'
p175
sS'vid'
p176
(dp177
S'1'
p178
S'0x2341'
p179
sg70
S'0x2341'
p180
ssS'pid'
p181
(dp182
g178
S'0x8041'
p183
sg70
S'0x0041'
p184
ssS'upload'
p185
(dp186
S'protocol'
p187
S'avr109'
p188
sS'disable_flushing'
p189
S'true'
p190
sS'tool'
p191
S'avrdude'
p192
sS'maximum_data_size'
p193
S'2560'
p194
sS'via_ssh'
p195
S'true'
p196
sS'maximum_size'
p197
S'28672'
p198
sS'use_1200bps_touch'
p199
S'true'
p200
sS'speed'
p201
S'57600'
p202
sS'wait_for_upload_port'
p203
S'true'
p204
ssS'build'
p205
(dp206
S'core'
p207
S'arduino'
p208
sS'f_cpu'
p209
S'16000000L'
p210
sS'vid'
p211
S'0x2341'
p212
sS'usb_product'
p213
S'"Arduino Yun"'
p214
sS'pid'
p215
S'0x8041'
p216
sS'extra_flags'
p217
S'{build.usb_flags}'
p218
sS'board'
p219
S'AVR_YUN'
p220
sS'mcu'
p221
S'atmega32u4'
p222
sS'variant'
p223
S'yun'
p224
ssg113
S'/usr/local/share/arduino/hardware/arduino/avr'
p225
sS'bootloader'
p226
(dp227
S'extended_fuses'
p228
S'0xfb'
p229
sS'high_fuses'
p230
S'0xd8'
p231
sS'low_fuses'
p232
S'0xff'
p233
sS'lock_bits'
p234
S'0x2F'
p235
sS'tool'
p236
S'avrdude'
p237
sS'file'
p238
S'caterina/Caterina-Yun.hex'
p239
sS'unlock_bits'
p240
S'0x3F'
p241
ssaa(lp242
S'uno'
p243
a(dp244
S'name'
p245
S'Arduino Uno'
p246
sS'vid'
p247
(dp248
g178
S'0x2341'
p249
sg70
S'0x2341'
p250
ssS'pid'
p251
(dp252
g178
S'0x0001'
p253
sg70
S'0x0043'
p254
ssS'upload'
p255
(dp256
S'speed'
p257
S'115200'
p258
sS'tool'
p259
S'avrdude'
p260
sS'protocol'
p261
S'arduino'
p262
sS'maximum_size'
p263
S'32256'
p264
sS'maximum_data_size'
p265
S'2048'
p266
ssS'build'
p267
(dp268
S'core'
p269
S'arduino'
p270
sS'mcu'
p271
S'atmega328p'
p272
sS'f_cpu'
p273
S'16000000L'
p274
sS'board'
p275
S'AVR_UNO'
p276
sS'variant'
p277
S'standard'
p278
ssg113
S'/usr/local/share/arduino/hardware/arduino/avr'
p279
sS'bootloader'
p280
(dp281
S'extended_fuses'
p282
S'0x05'
p283
sS'high_fuses'
p284
S'0xDE'
p285
sS'low_fuses'
p286
S'0xFF'
p287
sS'lock_bits'
p288
S'0x0F'
p289
sS'tool'
p290
S'avrdude'
p291
sS'file'
p292
S'optiboot/optiboot_atmega328.hex'
p293
sS'unlock_bits'
p294
S'0x3F'
p295
ssaa(lp296
S'diecimila'
p297
a(dp298
S'name'
p299
S'Arduino Duemilanove or Diecimila'
p300
sS'menu'
p301
(dp302
S'cpu'
p303
(dp304
S'atmega168'
p305
(dp306
S'bootloader'
p307
(dp308
S'extended_fuses'
p309
S'0x00'
p310
sS'high_fuses'
p311
S'0xdd'
p312
sS'file'
p313
S'atmega/ATmegaBOOT_168_diecimila.hex'
p314
ssS'upload'
p315
(dp316
S'maximum_size'
p317
S'14336'
p318
sS'speed'
p319
S'19200'
p320
sS'maximum_data_size'
p321
S'1024'
p322
ssS'_'
p323
S'ATmega168'
p324
sS'build'
p325
(dp326
S'mcu'
p327
S'atmega168'
p328
sssS'atmega328'
p329
(dp330
S'bootloader'
p331
(dp332
S'extended_fuses'
p333
S'0x05'
p334
sS'high_fuses'
p335
S'0xDA'
p336
sS'file'
p337
S'atmega/ATmegaBOOT_168_atmega328.hex'
p338
ssS'upload'
p339
(dp340
S'maximum_size'
p341
S'30720'
p342
sS'speed'
p343
S'57600'
p344
sS'maximum_data_size'
p345
S'2048'
p346
ssg323
S'ATmega328'
p347
sS'build'
p348
(dp349
S'mcu'
p350
S'atmega328p'
p351
sssssS'upload'
p352
(dp353
S'tool'
p354
S'avrdude'
p355
sS'protocol'
p356
S'arduino'
p357
ssS'build'
p358
(dp359
S'core'
p360
S'arduino'
p361
sS'f_cpu'
p362
S'16000000L'
p363
sS'board'
p364
S'AVR_DUEMILANOVE'
p365
sS'variant'
p366
S'standard'
p367
ssg113
S'/usr/local/share/arduino/hardware/arduino/avr'
p368
sS'bootloader'
p369
(dp370
S'low_fuses'
p371
S'0xFF'
p372
sS'lock_bits'
p373
S'0x0F'
p374
sS'tool'
p375
S'avrdude'
p376
sS'unlock_bits'
p377
S'0x3F'
p378
ssaa(lp379
S'nano'
p380
a(dp381
S'name'
p382
S'Arduino Nano'
p383
sS'menu'
p384
(dp385
S'cpu'
p386
(dp387
S'atmega168'
p388
(dp389
S'bootloader'
p390
(dp391
S'low_fuses'
p392
S'0xff'
p393
sS'extended_fuses'
p394
S'0x00'
p395
sS'high_fuses'
p396
S'0xdd'
p397
sS'file'
p398
S'atmega/ATmegaBOOT_168_diecimila.hex'
p399
ssS'upload'
p400
(dp401
S'maximum_size'
p402
S'14336'
p403
sS'speed'
p404
S'19200'
p405
sS'maximum_data_size'
p406
S'1024'
p407
ssg323
S'ATmega168'
p408
sS'build'
p409
(dp410
S'mcu'
p411
S'atmega168'
p412
sssS'atmega328'
p413
(dp414
S'bootloader'
p415
(dp416
S'low_fuses'
p417
S'0xFF'
p418
sS'extended_fuses'
p419
S'0x05'
p420
sS'high_fuses'
p421
S'0xDA'
p422
sS'file'
p423
S'atmega/ATmegaBOOT_168_atmega328.hex'
p424
ssS'upload'
p425
(dp426
S'maximum_size'
p427
S'30720'
p428
sS'speed'
p429
S'57600'
p430
sS'maximum_data_size'
p431
S'2048'
p432
ssg323
S'ATmega328'
p433
sS'build'
p434
(dp435
S'mcu'
p436
S'atmega328p'
p437
sssssS'upload'
p438
(dp439
S'tool'
p440
S'avrdude'
p441
sS'protocol'
p442
S'arduino'
p443
ssS'build'
p444
(dp445
S'core'
p446
S'arduino'
p447
sS'f_cpu'
p448
S'16000000L'
p449
sS'board'
p450
S'AVR_NANO'
p451
sS'variant'
p452
S'eightanaloginputs'
p453
ssg113
S'/usr/local/share/arduino/hardware/arduino/avr'
p454
sS'bootloader'
p455
(dp456
S'lock_bits'
p457
S'0x0F'
p458
sS'tool'
p459
S'avrdude'
p460
sS'unlock_bits'
p461
S'0x3F'
p462
ssaa(lp463
S'mega'
p464
a(dp465
S'name'
p466
S'Arduino Mega or Mega 2560'
p467
sS'vid'
p468
(dp469
g178
S'0x2341'
p470
sg70
S'0x2341'
p471
ssS'menu'
p472
(dp473
S'cpu'
p474
(dp475
S'atmega1280'
p476
(dp477
S'bootloader'
p478
(dp479
S'extended_fuses'
p480
S'0xF5'
p481
sS'high_fuses'
p482
S'0xDA'
p483
sS'file'
p484
S'atmega/ATmegaBOOT_168_atmega1280.hex'
p485
ssS'upload'
p486
(dp487
S'speed'
p488
S'57600'
p489
sS'maximum_size'
p490
S'126976'
p491
sS'protocol'
p492
S'arduino'
p493
ssg323
S'ATmega1280'
p494
sS'build'
p495
(dp496
S'mcu'
p497
S'atmega1280'
p498
sS'board'
p499
S'AVR_MEGA'
p500
sssS'atmega2560'
p501
(dp502
S'bootloader'
p503
(dp504
S'extended_fuses'
p505
S'0xFD'
p506
sS'high_fuses'
p507
S'0xD8'
p508
sS'file'
p509
S'stk500v2/stk500boot_v2_mega2560.hex'
p510
ssS'upload'
p511
(dp512
S'speed'
p513
S'115200'
p514
sS'maximum_size'
p515
S'253952'
p516
sS'protocol'
p517
S'wiring'
p518
ssg323
S'ATmega2560 (Mega 2560)'
p519
sS'build'
p520
(dp521
S'mcu'
p522
S'atmega2560'
p523
sS'board'
p524
S'AVR_MEGA2560'
p525
sssssS'pid'
p526
(dp527
g178
S'0x0042'
p528
sg70
S'0x0010'
p529
ssS'upload'
p530
(dp531
S'tool'
p532
S'avrdude'
p533
sS'maximum_data_size'
p534
S'8192'
p535
ssS'build'
p536
(dp537
S'core'
p538
S'arduino'
p539
sS'f_cpu'
p540
S'16000000L'
p541
sS'board'
p542
S'AVR_MEGA2560'
p543
sS'variant'
p544
S'mega'
p545
ssg113
S'/usr/local/share/arduino/hardware/arduino/avr'
p546
sS'bootloader'
p547
(dp548
S'low_fuses'
p549
S'0xFF'
p550
sS'lock_bits'
p551
S'0x0F'
p552
sS'tool'
p553
S'avrdude'
p554
sS'unlock_bits'
p555
S'0x3F'
p556
ssaa(lp557
S'megaADK'
p558
a(dp559
S'name'
p560
S'Arduino Mega ADK'
p561
sS'vid'
p562
(dp563
g178
S'0x2341'
p564
sg70
S'0x2341'
p565
ssS'pid'
p566
(dp567
g178
S'0x0044'
p568
sg70
S'0x003f'
p569
ssS'upload'
p570
(dp571
S'speed'
p572
S'115200'
p573
sS'tool'
p574
S'avrdude'
p575
sS'protocol'
p576
S'wiring'
p577
sS'maximum_size'
p578
S'253952'
p579
sS'maximum_data_size'
p580
S'8192'
p581
ssS'build'
p582
(dp583
S'core'
p584
S'arduino'
p585
sS'mcu'
p586
S'atmega2560'
p587
sS'f_cpu'
p588
S'16000000L'
p589
sS'board'
p590
S'AVR_ADK'
p591
sS'variant'
p592
S'mega'
p593
ssg113
S'/usr/local/share/arduino/hardware/arduino/avr'
p594
sS'bootloader'
p595
(dp596
S'extended_fuses'
p597
S'0xFD'
p598
sS'high_fuses'
p599
S'0xD8'
p600
sS'low_fuses'
p601
S'0xFF'
p602
sS'lock_bits'
p603
S'0x0F'
p604
sS'tool'
p605
S'avrdude'
p606
sS'file'
p607
S'stk500v2/stk500boot_v2_mega2560.hex'
p608
sS'unlock_bits'
p609
S'0x3F'
p610
ssaa(lp611
S'leonardo'
p612
a(dp613
S'name'
p614
S'Arduino Leonardo'
p615
sS'vid'
p616
(dp617
g178
S'0x2341'
p618
sg70
S'0x2341'
p619
ssS'pid'
p620
(dp621
g178
S'0x8036'
p622
sg70
S'0x0036'
p623
ssS'upload'
p624
(dp625
S'protocol'
p626
S'avr109'
p627
sS'disable_flushing'
p628
S'true'
p629
sS'tool'
p630
S'avrdude'
p631
sS'maximum_data_size'
p632
S'2560'
p633
sS'maximum_size'
p634
S'28672'
p635
sS'use_1200bps_touch'
p636
S'true'
p637
sS'speed'
p638
S'57600'
p639
sS'wait_for_upload_port'
p640
S'true'
p641
ssS'build'
p642
(dp643
S'core'
p644
S'arduino'
p645
sS'f_cpu'
p646
S'16000000L'
p647
sS'vid'
p648
S'0x2341'
p649
sS'usb_product'
p650
S'"Arduino Leonardo"'
p651
sS'pid'
p652
S'0x8036'
p653
sS'extra_flags'
p654
S'{build.usb_flags}'
p655
sS'board'
p656
S'AVR_LEONARDO'
p657
sS'mcu'
p658
S'atmega32u4'
p659
sS'variant'
p660
S'leonardo'
p661
ssg113
S'/usr/local/share/arduino/hardware/arduino/avr'
p662
sS'bootloader'
p663
(dp664
S'extended_fuses'
p665
S'0xcb'
p666
sS'high_fuses'
p667
S'0xd8'
p668
sS'low_fuses'
p669
S'0xff'
p670
sS'lock_bits'
p671
S'0x2F'
p672
sS'tool'
p673
S'avrdude'
p674
sS'file'
p675
S'caterina/Caterina-Leonardo.hex'
p676
sS'unlock_bits'
p677
S'0x3F'
p678
ssaa(lp679
S'micro'
p680
a(dp681
S'bootloader'
p682
(dp683
S'extended_fuses'
p684
S'0xcb'
p685
sS'high_fuses'
p686
S'0xd8'
p687
sS'low_fuses'
p688
S'0xff'
p689
sS'lock_bits'
p690
S'0x2F'
p691
sS'tool'
p692
S'avrdude'
p693
sS'file'
p694
S'caterina/Caterina-Micro.hex'
p695
sS'unlock_bits'
p696
S'0x3F'
p697
ssS'upload'
p698
(dp699
S'protocol'
p700
S'avr109'
p701
sS'disable_flushing'
p702
S'true'
p703
sS'tool'
p704
S'avrdude'
p705
sS'maximum_data_size'
p706
S'2560'
p707
sS'maximum_size'
p708
S'28672'
p709
sS'use_1200bps_touch'
p710
S'true'
p711
sS'speed'
p712
S'57600'
p713
sS'wait_for_upload_port'
p714
S'true'
p715
ssS'build'
p716
(dp717
S'core'
p718
S'arduino'
p719
sS'f_cpu'
p720
S'16000000L'
p721
sS'vid'
p722
S'0x2341'
p723
sS'usb_product'
p724
S'"Arduino Micro"'
p725
sS'pid'
p726
S'0x8037'
p727
sS'extra_flags'
p728
S'{build.usb_flags}'
p729
sS'board'
p730
S'AVR_MICRO'
p731
sS'mcu'
p732
S'atmega32u4'
p733
sS'variant'
p734
S'micro'
p735
ssS'name'
p736
S'Arduino Micro'
p737
sg113
S'/usr/local/share/arduino/hardware/arduino/avr'
p738
saa(lp739
S'esplora'
p740
a(dp741
S'name'
p742
S'Arduino Esplora'
p743
sS'vid'
p744
(dp745
g178
S'0x2341'
p746
sg70
S'0x2341'
p747
ssS'pid'
p748
(dp749
g178
S'0x803c'
p750
sg70
S'0x003c'
p751
ssS'upload'
p752
(dp753
S'protocol'
p754
S'avr109'
p755
sS'disable_flushing'
p756
S'true'
p757
sS'tool'
p758
S'avrdude'
p759
sS'maximum_data_size'
p760
S'2560'
p761
sS'maximum_size'
p762
S'28672'
p763
sS'use_1200bps_touch'
p764
S'true'
p765
sS'speed'
p766
S'57600'
p767
sS'wait_for_upload_port'
p768
S'true'
p769
ssS'build'
p770
(dp771
S'core'
p772
S'arduino'
p773
sS'f_cpu'
p774
S'16000000L'
p775
sS'vid'
p776
S'0x2341'
p777
sS'usb_product'
p778
S'"Arduino Esplora"'
p779
sS'pid'
p780
S'0x803c'
p781
sS'extra_flags'
p782
S'{build.usb_flags}'
p783
sS'board'
p784
S'AVR_ESPLORA'
p785
sS'mcu'
p786
S'atmega32u4'
p787
sS'variant'
p788
S'leonardo'
p789
ssg113
S'/usr/local/share/arduino/hardware/arduino/avr'
p790
sS'bootloader'
p791
(dp792
S'extended_fuses'
p793
S'0xcb'
p794
sS'high_fuses'
p795
S'0xd8'
p796
sS'low_fuses'
p797
S'0xff'
p798
sS'lock_bits'
p799
S'0x2F'
p800
sS'tool'
p801
S'avrdude'
p802
sS'file'
p803
S'caterina/Caterina-Esplora.hex'
p804
sS'unlock_bits'
p805
S'0x3F'
p806
ssaa(lp807
S'mini'
p808
a(dp809
S'name'
p810
S'Arduino Mini'
p811
sS'menu'
p812
(dp813
S'cpu'
p814
(dp815
S'atmega168'
p816
(dp817
S'bootloader'
p818
(dp819
S'extended_fuses'
p820
S'0x00'
p821
sS'high_fuses'
p822
S'0xdd'
p823
sS'file'
p824
S'atmega/ATmegaBOOT_168_ng.hex'
p825
ssS'upload'
p826
(dp827
S'maximum_size'
p828
S'14336'
p829
sS'speed'
p830
S'19200'
p831
sS'maximum_data_size'
p832
S'1024'
p833
ssg323
S'ATmega168'
p834
sS'build'
p835
(dp836
S'mcu'
p837
S'atmega168'
p838
sssS'atmega328'
p839
(dp840
S'bootloader'
p841
(dp842
S'extended_fuses'
p843
S'0x05'
p844
sS'high_fuses'
p845
S'0xd8'
p846
sS'file'
p847
S'optiboot/optiboot_atmega328-Mini.hex'
p848
ssS'upload'
p849
(dp850
S'maximum_size'
p851
S'28672'
p852
sS'speed'
p853
S'115200'
p854
sS'maximum_data_size'
p855
S'2048'
p856
ssg323
S'ATmega328'
p857
sS'build'
p858
(dp859
S'mcu'
p860
S'atmega328p'
p861
sssssS'upload'
p862
(dp863
S'tool'
p864
S'avrdude'
p865
sS'protocol'
p866
S'arduino'
p867
ssS'build'
p868
(dp869
S'core'
p870
S'arduino'
p871
sS'f_cpu'
p872
S'16000000L'
p873
sS'board'
p874
S'AVR_MINI'
p875
sS'variant'
p876
S'eightanaloginputs'
p877
ssg113
S'/usr/local/share/arduino/hardware/arduino/avr'
p878
sS'bootloader'
p879
(dp880
S'low_fuses'
p881
S'0xff'
p882
sS'lock_bits'
p883
S'0x0F'
p884
sS'tool'
p885
S'avrdude'
p886
sS'unlock_bits'
p887
S'0x3F'
p888
ssaa(lp889
S'ethernet'
p890
a(dp891
S'bootloader'
p892
(dp893
S'extended_fuses'
p894
S'0x05'
p895
sS'high_fuses'
p896
S'0xde'
p897
sS'low_fuses'
p898
S'0xff'
p899
sS'lock_bits'
p900
S'0x0F'
p901
sS'tool'
p902
S'avrdude'
p903
sS'file'
p904
S'optiboot/optiboot_atmega328.hex'
p905
sS'unlock_bits'
p906
S'0x3F'
p907
ssS'upload'
p908
(dp909
S'speed'
p910
S'115200'
p911
sS'tool'
p912
S'avrdude'
p913
sS'protocol'
p914
S'arduino'
p915
sS'maximum_size'
p916
S'32256'
p917
sS'maximum_data_size'
p918
S'2048'
p919
ssS'build'
p920
(dp921
S'f_cpu'
p922
S'16000000L'
p923
sS'mcu'
p924
S'atmega328p'
p925
sS'variant'
p926
S'ethernet'
p927
sS'board'
p928
S'AVR_ETHERNET'
p929
sS'core'
p930
S'arduino'
p931
ssS'name'
p932
S'Arduino Ethernet'
p933
sg113
S'/usr/local/share/arduino/hardware/arduino/avr'
p934
saa(lp935
S'fio'
p936
a(dp937
S'bootloader'
p938
(dp939
S'extended_fuses'
p940
S'0x05'
p941
sS'high_fuses'
p942
S'0xDA'
p943
sS'low_fuses'
p944
S'0xFF'
p945
sS'lock_bits'
p946
S'0x0F'
p947
sS'tool'
p948
S'avrdude'
p949
sS'file'
p950
S'atmega/ATmegaBOOT_168_atmega328_pro_8MHz.hex'
p951
sS'unlock_bits'
p952
S'0x3F'
p953
ssS'upload'
p954
(dp955
S'speed'
p956
S'57600'
p957
sS'tool'
p958
S'avrdude'
p959
sS'protocol'
p960
S'arduino'
p961
sS'maximum_size'
p962
S'30720'
p963
sS'maximum_data_size'
p964
S'2048'
p965
ssS'build'
p966
(dp967
S'core'
p968
S'arduino'
p969
sS'mcu'
p970
S'atmega328p'
p971
sS'f_cpu'
p972
S'8000000L'
p973
sS'board'
p974
S'AVR_FIO'
p975
sS'variant'
p976
S'eightanaloginputs'
p977
ssS'name'
p978
S'Arduino Fio'
p979
sg113
S'/usr/local/share/arduino/hardware/arduino/avr'
p980
saa(lp981
S'bt'
p982
a(dp983
S'name'
p984
S'Arduino BT'
p985
sS'menu'
p986
(dp987
S'cpu'
p988
(dp989
S'atmega168'
p990
(dp991
S'bootloader'
p992
(dp993
S'extended_fuses'
p994
S'0x00'
p995
sS'high_fuses'
p996
S'0xdd'
p997
sS'file'
p998
S'bt/ATmegaBOOT_168.hex'
p999
ssS'upload'
p1000
(dp1001
S'maximum_size'
p1002
S'14336'
p1003
sS'maximum_data_size'
p1004
S'1024'
p1005
ssg323
S'ATmega168'
p1006
sS'build'
p1007
(dp1008
S'mcu'
p1009
S'atmega168'
p1010
sssS'atmega328'
p1011
(dp1012
S'bootloader'
p1013
(dp1014
S'extended_fuses'
p1015
S'0x05'
p1016
sS'high_fuses'
p1017
S'0xd8'
p1018
sS'file'
p1019
S'bt/ATmegaBOOT_168_atmega328_bt.hex'
p1020
ssS'upload'
p1021
(dp1022
S'maximum_size'
p1023
S'28672'
p1024
sS'maximum_data_size'
p1025
S'2048'
p1026
ssg323
S'ATmega328'
p1027
sS'build'
p1028
(dp1029
S'mcu'
p1030
S'atmega328p'
p1031
sssssS'upload'
p1032
(dp1033
S'speed'
p1034
S'19200'
p1035
sS'tool'
p1036
S'avrdude'
p1037
sS'protocol'
p1038
S'arduino'
p1039
sS'disable_flushing'
p1040
S'true'
p1041
ssS'build'
p1042
(dp1043
S'core'
p1044
S'arduino'
p1045
sS'f_cpu'
p1046
S'16000000L'
p1047
sS'board'
p1048
S'AVR_BT'
p1049
sS'variant'
p1050
S'eightanaloginputs'
p1051
ssg113
S'/usr/local/share/arduino/hardware/arduino/avr'
p1052
sS'bootloader'
p1053
(dp1054
S'low_fuses'
p1055
S'0xff'
p1056
sS'lock_bits'
p1057
S'0x0F'
p1058
sS'tool'
p1059
S'avrdude'
p1060
sS'unlock_bits'
p1061
S'0x3F'
p1062
ssaa(lp1063
S'LilyPadUSB'
p1064
a(dp1065
S'bootloader'
p1066
(dp1067
S'extended_fuses'
p1068
S'0xce'
p1069
sS'high_fuses'
p1070
S'0xd8'
p1071
sS'low_fuses'
p1072
S'0xff'
p1073
sS'lock_bits'
p1074
S'0x2F'
p1075
sS'tool'
p1076
S'avrdude'
p1077
sS'file'
p1078
S'caterina-LilyPadUSB/Caterina-LilyPadUSB.hex'
p1079
sS'unlock_bits'
p1080
S'0x3F'
p1081
ssS'upload'
p1082
(dp1083
S'protocol'
p1084
S'avr109'
p1085
sS'disable_flushing'
p1086
S'true'
p1087
sS'tool'
p1088
S'avrdude'
p1089
sS'maximum_data_size'
p1090
S'2560'
p1091
sS'maximum_size'
p1092
S'28672'
p1093
sS'use_1200bps_touch'
p1094
S'true'
p1095
sS'speed'
p1096
S'57600'
p1097
sS'wait_for_upload_port'
p1098
S'true'
p1099
ssS'build'
p1100
(dp1101
S'core'
p1102
S'arduino'
p1103
sS'f_cpu'
p1104
S'8000000L'
p1105
sS'vid'
p1106
S'0x1B4F'
p1107
sS'usb_product'
p1108
S'"LilyPad USB"'
p1109
sS'pid'
p1110
S'0x9208'
p1111
sS'extra_flags'
p1112
S'{build.usb_flags}'
p1113
sS'board'
p1114
S'AVR_LILYPAD_USB'
p1115
sS'mcu'
p1116
S'atmega32u4'
p1117
sS'variant'
p1118
S'leonardo'
p1119
ssS'name'
p1120
S'LilyPad Arduino USB'
p1121
sg113
S'/usr/local/share/arduino/hardware/arduino/avr'
p1122
saa(lp1123
S'lilypad'
p1124
a(dp1125
S'name'
p1126
S'LilyPad Arduino'
p1127
sS'menu'
p1128
(dp1129
S'cpu'
p1130
(dp1131
S'atmega168'
p1132
(dp1133
S'bootloader'
p1134
(dp1135
S'low_fuses'
p1136
S'0xe2'
p1137
sS'extended_fuses'
p1138
S'0x00'
p1139
sS'high_fuses'
p1140
S'0xdd'
p1141
sS'file'
p1142
S'lilypad/LilyPadBOOT_168.hex'
p1143
ssS'upload'
p1144
(dp1145
S'maximum_size'
p1146
S'14336'
p1147
sS'speed'
p1148
S'19200'
p1149
sS'maximum_data_size'
p1150
S'1024'
p1151
ssg323
S'ATmega168'
p1152
sS'build'
p1153
(dp1154
S'mcu'
p1155
S'atmega168'
p1156
sssS'atmega328'
p1157
(dp1158
S'bootloader'
p1159
(dp1160
S'low_fuses'
p1161
S'0xFF'
p1162
sS'extended_fuses'
p1163
S'0x05'
p1164
sS'high_fuses'
p1165
S'0xDA'
p1166
sS'file'
p1167
S'atmega/ATmegaBOOT_168_atmega328_pro_8MHz.hex'
p1168
ssS'upload'
p1169
(dp1170
S'maximum_size'
p1171
S'30720'
p1172
sS'speed'
p1173
S'57600'
p1174
sS'maximum_data_size'
p1175
S'2048'
p1176
ssg323
S'ATmega328'
p1177
sS'build'
p1178
(dp1179
S'mcu'
p1180
S'atmega328p'
p1181
sssssS'upload'
p1182
(dp1183
S'tool'
p1184
S'avrdude'
p1185
sS'protocol'
p1186
S'arduino'
p1187
ssS'build'
p1188
(dp1189
S'core'
p1190
S'arduino'
p1191
sS'f_cpu'
p1192
S'8000000L'
p1193
sS'board'
p1194
S'AVR_LILYPAD'
p1195
sS'variant'
p1196
S'standard'
p1197
ssg113
S'/usr/local/share/arduino/hardware/arduino/avr'
p1198
sS'bootloader'
p1199
(dp1200
S'lock_bits'
p1201
S'0x0F'
p1202
sS'tool'
p1203
S'avrdude'
p1204
sS'unlock_bits'
p1205
S'0x3F'
p1206
ssaa(lp1207
S'pro'
p1208
a(dp1209
S'name'
p1210
S'Arduino Pro or Pro Mini'
p1211
sS'menu'
p1212
(dp1213
S'cpu'
p1214
(dp1215
S'16MHzatmega328'
p1216
(dp1217
S'bootloader'
p1218
(dp1219
S'low_fuses'
p1220
S'0xFF'
p1221
sS'extended_fuses'
p1222
S'0x05'
p1223
sS'high_fuses'
p1224
S'0xDA'
p1225
sS'file'
p1226
S'atmega/ATmegaBOOT_168_atmega328.hex'
p1227
ssS'upload'
p1228
(dp1229
S'maximum_size'
p1230
S'30720'
p1231
sS'speed'
p1232
S'57600'
p1233
sS'maximum_data_size'
p1234
S'2048'
p1235
ssg323
S'ATmega328 (5V, 16 MHz)'
p1236
sS'build'
p1237
(dp1238
S'mcu'
p1239
S'atmega328p'
p1240
sS'f_cpu'
p1241
S'16000000L'
p1242
sssS'8MHzatmega328'
p1243
(dp1244
S'bootloader'
p1245
(dp1246
S'low_fuses'
p1247
S'0xFF'
p1248
sS'extended_fuses'
p1249
S'0x05'
p1250
sS'high_fuses'
p1251
S'0xDA'
p1252
sS'file'
p1253
S'atmega/ATmegaBOOT_168_atmega328_pro_8MHz.hex'
p1254
ssS'upload'
p1255
(dp1256
S'maximum_size'
p1257
S'30720'
p1258
sS'speed'
p1259
S'57600'
p1260
sS'maximum_data_size'
p1261
S'2048'
p1262
ssg323
S'ATmega328 (3.3V, 8 MHz)'
p1263
sS'build'
p1264
(dp1265
S'mcu'
p1266
S'atmega328p'
p1267
sS'f_cpu'
p1268
S'8000000L'
p1269
sssS'8MHzatmega168'
p1270
(dp1271
S'bootloader'
p1272
(dp1273
S'low_fuses'
p1274
S'0xc6'
p1275
sS'extended_fuses'
p1276
S'0x00'
p1277
sS'high_fuses'
p1278
S'0xdd'
p1279
sS'file'
p1280
S'atmega/ATmegaBOOT_168_pro_8MHz.hex'
p1281
ssS'upload'
p1282
(dp1283
S'maximum_size'
p1284
S'14336'
p1285
sS'speed'
p1286
S'19200'
p1287
sS'maximum_data_size'
p1288
S'1024'
p1289
ssg323
S'ATmega168 (3.3V, 8 MHz)'
p1290
sS'build'
p1291
(dp1292
S'mcu'
p1293
S'atmega168'
p1294
sS'f_cpu'
p1295
S'8000000L'
p1296
sssS'16MHzatmega168'
p1297
(dp1298
S'bootloader'
p1299
(dp1300
S'low_fuses'
p1301
S'0xff'
p1302
sS'extended_fuses'
p1303
S'0x00'
p1304
sS'high_fuses'
p1305
S'0xdd'
p1306
sS'file'
p1307
S'atmega/ATmegaBOOT_168_diecimila.hex'
p1308
ssS'upload'
p1309
(dp1310
S'maximum_size'
p1311
S'14336'
p1312
sS'speed'
p1313
S'19200'
p1314
sS'maximum_data_size'
p1315
S'1024'
p1316
ssg323
S'ATmega168 (5V, 16 MHz)'
p1317
sS'build'
p1318
(dp1319
S'mcu'
p1320
S'atmega168'
p1321
sS'f_cpu'
p1322
S'16000000L'
p1323
sssssS'upload'
p1324
(dp1325
S'tool'
p1326
S'avrdude'
p1327
sS'protocol'
p1328
S'arduino'
p1329
ssS'build'
p1330
(dp1331
S'core'
p1332
S'arduino'
p1333
sS'variant'
p1334
S'eightanaloginputs'
p1335
sS'board'
p1336
S'AVR_PRO'
p1337
ssg113
S'/usr/local/share/arduino/hardware/arduino/avr'
p1338
sS'bootloader'
p1339
(dp1340
S'lock_bits'
p1341
S'0x0F'
p1342
sS'tool'
p1343
S'avrdude'
p1344
sS'unlock_bits'
p1345
S'0x3F'
p1346
ssaa(lp1347
S'atmegang'
p1348
a(dp1349
S'name'
p1350
S'Arduino NG or older'
p1351
sS'menu'
p1352
(dp1353
S'cpu'
p1354
(dp1355
S'atmega168'
p1356
(dp1357
S'bootloader'
p1358
(dp1359
S'low_fuses'
p1360
S'0xff'
p1361
sS'extended_fuses'
p1362
S'0x00'
p1363
sS'high_fuses'
p1364
S'0xdd'
p1365
sS'file'
p1366
S'atmega/ATmegaBOOT_168_ng.hex'
p1367
ssS'upload'
p1368
(dp1369
S'maximum_size'
p1370
S'14336'
p1371
sS'maximum_data_size'
p1372
S'1024'
p1373
ssg323
S'ATmega168'
p1374
sS'build'
p1375
(dp1376
S'mcu'
p1377
S'atmega168'
p1378
sssS'atmega8'
p1379
(dp1380
S'bootloader'
p1381
(dp1382
S'low_fuses'
p1383
S'0xdf'
p1384
sS'high_fuses'
p1385
S'0xca'
p1386
sS'file'
p1387
S'atmega8/ATmegaBOOT-prod-firmware-2009-11-07.hex'
p1388
ssS'upload'
p1389
(dp1390
S'maximum_size'
p1391
S'7168'
p1392
sS'maximum_data_size'
p1393
S'1024'
p1394
ssg323
S'ATmega8'
p1395
sS'build'
p1396
(dp1397
S'mcu'
p1398
S'atmega8'
p1399
sssssS'upload'
p1400
(dp1401
S'speed'
p1402
S'19200'
p1403
sS'tool'
p1404
S'avrdude'
p1405
sS'protocol'
p1406
S'arduino'
p1407
ssS'build'
p1408
(dp1409
S'core'
p1410
S'arduino'
p1411
sS'mcu'
p1412
S'atmegang'
p1413
sS'f_cpu'
p1414
S'16000000L'
p1415
sS'board'
p1416
S'AVR_NG'
p1417
sS'variant'
p1418
S'standard'
p1419
ssg113
S'/usr/local/share/arduino/hardware/arduino/avr'
p1420
sS'bootloader'
p1421
(dp1422
S'lock_bits'
p1423
S'0x0F'
p1424
sS'tool'
p1425
S'avrdude'
p1426
sS'unlock_bits'
p1427
S'0x3F'
p1428
ssaa(lp1429
S'robotControl'
p1430
a(dp1431
S'bootloader'
p1432
(dp1433
S'extended_fuses'
p1434
S'0xcb'
p1435
sS'high_fuses'
p1436
S'0xd8'
p1437
sS'low_fuses'
p1438
S'0xff'
p1439
sS'lock_bits'
p1440
S'0x2F'
p1441
sS'tool'
p1442
S'avrdude'
p1443
sS'file'
p1444
S'caterina-Arduino_Robot/Caterina-Robot-Control.hex'
p1445
sS'unlock_bits'
p1446
S'0x3F'
p1447
ssS'upload'
p1448
(dp1449
S'protocol'
p1450
S'avr109'
p1451
sS'disable_flushing'
p1452
S'true'
p1453
sS'tool'
p1454
S'avrdude'
p1455
sS'maximum_data_size'
p1456
S'2560'
p1457
sS'maximum_size'
p1458
S'28672'
p1459
sS'use_1200bps_touch'
p1460
S'true'
p1461
sS'speed'
p1462
S'57600'
p1463
sS'wait_for_upload_port'
p1464
S'true'
p1465
ssS'build'
p1466
(dp1467
S'core'
p1468
S'arduino'
p1469
sS'f_cpu'
p1470
S'16000000L'
p1471
sS'vid'
p1472
S'0x2341'
p1473
sS'usb_product'
p1474
S'"Robot Control"'
p1475
sS'pid'
p1476
S'0x8038'
p1477
sS'extra_flags'
p1478
S'{build.usb_flags}'
p1479
sS'board'
p1480
S'AVR_ROBOT_CONTROL'
p1481
sS'mcu'
p1482
S'atmega32u4'
p1483
sS'variant'
p1484
S'robot_control'
p1485
ssS'name'
p1486
S'Arduino Robot Control'
p1487
sg113
S'/usr/local/share/arduino/hardware/arduino/avr'
p1488
saa(lp1489
S'robotMotor'
p1490
a(dp1491
S'bootloader'
p1492
(dp1493
S'extended_fuses'
p1494
S'0xcb'
p1495
sS'high_fuses'
p1496
S'0xd8'
p1497
sS'low_fuses'
p1498
S'0xff'
p1499
sS'lock_bits'
p1500
S'0x2F'
p1501
sS'tool'
p1502
S'avrdude'
p1503
sS'file'
p1504
S'caterina-Arduino_Robot/Caterina-Robot-Motor.hex'
p1505
sS'unlock_bits'
p1506
S'0x3F'
p1507
ssS'upload'
p1508
(dp1509
S'protocol'
p1510
S'avr109'
p1511
sS'disable_flushing'
p1512
S'true'
p1513
sS'tool'
p1514
S'avrdude'
p1515
sS'maximum_data_size'
p1516
S'2560'
p1517
sS'maximum_size'
p1518
S'28672'
p1519
sS'use_1200bps_touch'
p1520
S'true'
p1521
sS'speed'
p1522
S'57600'
p1523
sS'wait_for_upload_port'
p1524
S'true'
p1525
ssS'build'
p1526
(dp1527
S'core'
p1528
S'arduino'
p1529
sS'f_cpu'
p1530
S'16000000L'
p1531
sS'vid'
p1532
S'0x2341'
p1533
sS'usb_product'
p1534
S'"Robot Motor"'
p1535
sS'pid'
p1536
S'0x8039'
p1537
sS'extra_flags'
p1538
S'{build.usb_flags}'
p1539
sS'board'
p1540
S'AVR_ROBOT_MOTOR'
p1541
sS'mcu'
p1542
S'atmega32u4'
p1543
sS'variant'
p1544
S'robot_motor'
p1545
ssS'name'
p1546
S'Arduino Robot Motor'
p1547
sg113
S'/usr/local/share/arduino/hardware/arduino/avr'
p1548
saatp1549
Rp1550
(dp1551
S'default'
p1552
S'uno'
p1553
sbtp1554
a(S'used_libs'
p1555
(lp1556
S'/usr/local/share/arduino/hardware/arduino/avr/cores/arduino'
p1557
atp1558
a(S'make'
p1559
S'/usr/bin/make'
p1560
tp1561
a(S'arduino_libraries_dir'
p1562
S'/usr/local/share/arduino/libraries'
p1563
tp1564
a(S'cc'
p1565
S'/usr/local/share/arduino/hardware/tools/avr/bin/avr-gcc'
p1566
tp1567
a(S'cflags'
p1568
g2
(g3
g4
(lp1569
tp1570
Rp1571
tp1572
a(S'cxxflags'
p1573
g2
(g3
g4
(lp1574
S'-fno-exceptions'
p1575
atp1576
Rp1577
tp1578
a(S'arduino_variants_dir'
p1579
S'/usr/local/share/arduino/hardware/arduino/avr/variants'
p1580
tp1581
a(S'serial'
p1582
S'/usr/bin/picocom'
p1583
tp1584
a(S'stty'
p1585
S'/bin/stty'
p1586
tp1587
a(S'version.txt'
p1588
S'/usr/local/share/arduino/lib/version.txt'
p1589
tp1590
a(S'arduino_core_dir'
p1591
g1557
tp1592
a(S'boards.txt'
p1593
(lp1594
S'/usr/local/share/arduino/hardware/arduino/sam/boards.txt'
p1595
aS'/usr/local/share/arduino/hardware/arduino/avr/boards.txt'
p1596
atp1597
a(S'avrdude.conf'
p1598
S'/usr/local/share/arduino/hardware/tools/avr/etc/avrdude.conf'
p1599
tp1600
a(g38
g2
(g3
g4
(lp1601
S'.build/uno/src/dependencies.d'
p1602
aS'.build/uno/arduino/dependencies.d'
p1603
atp1604
Rp1605
tp1606
a.