(lp0
(S'cppflags'
p1
ccopy_reg
_reconstructor
p2
(cino.utils
SpaceList
p3
c__builtin__
list
p4
(lp5
S'-mmcu=atmega328p'
p6
aS'-DF_CPU=16000000L'
p7
aS'-DARDUINO=160'
p8
aS'-I/usr/local/share/arduino/hardware/arduino/avr/cores/arduino'
p9
aS'-ffunction-sections'
p10
aS'-fdata-sections'
p11
aS'-g'
p12
aS'-Os'
p13
aS'-w'
p14
aS'-I/usr/local/share/arduino/hardware/arduino/avr/variants/standard'
p15
aS'-Ilib/TFTv2'
p16
aS'-Ilib/SPI'
p17
aS'-I/usr/local/share/arduino/hardware/arduino/avr/cores/arduino'
p18
atp19
Rp20
tp21
a(S'cxx'
p22
S'/usr/local/share/arduino/hardware/tools/avr/bin/avr-g++'
p23
tp24
a(S'arduino_libraries_dir'
p25
S'/usr/local/share/arduino/libraries'
p26
tp27
a(S'avrdude'
p28
S'/usr/local/share/arduino/hardware/tools/avr/bin/avrdude'
p29
tp30
a(S'ar'
p31
S'/usr/local/share/arduino/hardware/tools/avr/bin/avr-ar'
p32
tp33
a(S'names'
p34
(dp35
S'cpp'
p36
S'%s.cpp'
p37
sS'obj'
p38
S'%s.o'
p39
sS'lib'
p40
S'lib%s.a'
p41
sS'deps'
p42
S'%s.d'
p43
stp44
a(S'ldflags'
p45
g2
(g3
g4
(lp46
g6
aS'-Wl,-Os'
p47
aS'-Wl,--gc-sections'
p48
atp49
Rp50
tp51
a(S'arduino_lib_version'
p52
g2
(cino.environment
Version
p53
c__builtin__
tuple
p54
(I1
I6
I0
tp55
tp56
Rp57
tp58
a(S'objcopy'
p59
S'/usr/local/share/arduino/hardware/tools/avr/bin/avr-objcopy'
p60
tp61
a(S'board_models'
p62
cino.environment
BoardModels
p63
((lp64
(lp65
S'arduino_due_x_dbg'
p66
a(dp67
S'name'
p68
S'Arduino Due (Programming Port)'
p69
sS'vid'
p70
(dp71
S'0'
p72
S'0x2341'
p73
ssS'pid'
p74
(dp75
g72
S'0x003d'
p76
ssS'upload'
p77
(dp78
S'protocol'
p79
S'sam-ba'
p80
sS'wait_for_upload_port'
p81
S'false'
p82
sS'tool'
p83
S'bossac'
p84
sS'native_usb'
p85
S'false'
p86
sS'maximum_size'
p87
S'524288'
p88
sS'use_1200bps_touch'
p89
S'true'
p90
ssS'build'
p91
(dp92
S'core'
p93
S'arduino'
p94
sS'ldscript'
p95
S'linker_scripts/gcc/flash.ld'
p96
sS'f_cpu'
p97
S'84000000L'
p98
sS'vid'
p99
S'0x2341'
p100
sS'pid'
p101
S'0x003e'
p102
sS'variant'
p103
S'arduino_due_x'
p104
sS'extra_flags'
p105
S'-D__SAM3X8E__ -mthumb {build.usb_flags}'
p106
sS'variant_system_lib'
p107
S'libsam_sam3x8e_gcc_rel.a'
p108
sS'board'
p109
S'SAM_DUE'
p110
sS'usb_product'
p111
S'"Arduino Due"'
p112
sS'mcu'
p113
S'cortex-m3'
p114
ssS'_coredir'
p115
S'/usr/local/share/arduino/hardware/arduino/sam'
p116
saa(lp117
S'arduino_due_x'
p118
a(dp119
S'name'
p120
S'Arduino Due (Native USB Port)'
p121
sS'vid'
p122
(dp123
g72
S'0x2341'
p124
ssS'pid'
p125
(dp126
g72
S'0x003e'
p127
ssS'upload'
p128
(dp129
S'protocol'
p130
S'sam-ba'
p131
sS'wait_for_upload_port'
p132
S'true'
p133
sS'tool'
p134
S'bossac'
p135
sS'native_usb'
p136
S'true'
p137
sS'maximum_size'
p138
S'524288'
p139
sS'use_1200bps_touch'
p140
S'true'
p141
ssS'build'
p142
(dp143
S'core'
p144
S'arduino'
p145
sS'ldscript'
p146
S'linker_scripts/gcc/flash.ld'
p147
sS'f_cpu'
p148
S'84000000L'
p149
sS'vid'
p150
S'0x2341'
p151
sS'pid'
p152
S'0x003e'
p153
sS'variant'
p154
S'arduino_due_x'
p155
sS'extra_flags'
p156
S'-D__SAM3X8E__ -mthumb {build.usb_flags}'
p157
sS'variant_system_lib'
p158
S'libsam_sam3x8e_gcc_rel.a'
p159
sS'board'
p160
S'SAM_DUE'
p161
sS'usb_product'
p162
S'"Arduino Due"'
p163
sS'mcu'
p164
S'cortex-m3'
p165
ssg115
S'/usr/local/share/arduino/hardware/arduino/sam'
p166
saa(lp167
S'menu'
p168
a(dp169
S'cpu'
p170
S'Processor'
p171
sg115
S'/usr/local/share/arduino/hardware/arduino/avr'
p172
saa(lp173
S'yun'
p174
a(dp175
S'name'
p176
S'Arduino Y\xc3\xban'
p177
sS'vid'
p178
(dp179
S'1'
p180
S'0x2341'
p181
sg72
S'0x2341'
p182
ssS'pid'
p183
(dp184
g180
S'0x8041'
p185
sg72
S'0x0041'
p186
ssS'upload'
p187
(dp188
S'via_ssh'
p189
S'true'
p190
sS'disable_flushing'
p191
S'true'
p192
sS'tool'
p193
S'avrdude'
p194
sS'maximum_data_size'
p195
S'2560'
p196
sS'protocol'
p197
S'avr109'
p198
sS'maximum_size'
p199
S'28672'
p200
sS'use_1200bps_touch'
p201
S'true'
p202
sS'speed'
p203
S'57600'
p204
sS'wait_for_upload_port'
p205
S'true'
p206
ssS'build'
p207
(dp208
S'core'
p209
S'arduino'
p210
sS'f_cpu'
p211
S'16000000L'
p212
sS'vid'
p213
S'0x2341'
p214
sS'usb_product'
p215
S'"Arduino Yun"'
p216
sS'pid'
p217
S'0x8041'
p218
sS'extra_flags'
p219
S'{build.usb_flags}'
p220
sS'board'
p221
S'AVR_YUN'
p222
sS'mcu'
p223
S'atmega32u4'
p224
sS'variant'
p225
S'yun'
p226
ssg115
S'/usr/local/share/arduino/hardware/arduino/avr'
p227
sS'bootloader'
p228
(dp229
S'extended_fuses'
p230
S'0xfb'
p231
sS'high_fuses'
p232
S'0xd8'
p233
sS'low_fuses'
p234
S'0xff'
p235
sS'lock_bits'
p236
S'0x2F'
p237
sS'tool'
p238
S'avrdude'
p239
sS'file'
p240
S'caterina/Caterina-Yun.hex'
p241
sS'unlock_bits'
p242
S'0x3F'
p243
ssaa(lp244
S'uno'
p245
a(dp246
S'name'
p247
S'Arduino Uno'
p248
sS'vid'
p249
(dp250
g180
S'0x2341'
p251
sg72
S'0x2341'
p252
ssS'pid'
p253
(dp254
g180
S'0x0001'
p255
sg72
S'0x0043'
p256
ssS'upload'
p257
(dp258
S'protocol'
p259
S'arduino'
p260
sS'tool'
p261
S'avrdude'
p262
sS'speed'
p263
S'115200'
p264
sS'maximum_size'
p265
S'32256'
p266
sS'maximum_data_size'
p267
S'2048'
p268
ssS'build'
p269
(dp270
S'core'
p271
S'arduino'
p272
sS'mcu'
p273
S'atmega328p'
p274
sS'f_cpu'
p275
S'16000000L'
p276
sS'board'
p277
S'AVR_UNO'
p278
sS'variant'
p279
S'standard'
p280
ssg115
S'/usr/local/share/arduino/hardware/arduino/avr'
p281
sS'bootloader'
p282
(dp283
S'extended_fuses'
p284
S'0x05'
p285
sS'high_fuses'
p286
S'0xDE'
p287
sS'low_fuses'
p288
S'0xFF'
p289
sS'lock_bits'
p290
S'0x0F'
p291
sS'tool'
p292
S'avrdude'
p293
sS'file'
p294
S'optiboot/optiboot_atmega328.hex'
p295
sS'unlock_bits'
p296
S'0x3F'
p297
ssaa(lp298
S'diecimila'
p299
a(dp300
S'name'
p301
S'Arduino Duemilanove or Diecimila'
p302
sS'menu'
p303
(dp304
S'cpu'
p305
(dp306
S'atmega168'
p307
(dp308
S'bootloader'
p309
(dp310
S'extended_fuses'
p311
S'0x00'
p312
sS'high_fuses'
p313
S'0xdd'
p314
sS'file'
p315
S'atmega/ATmegaBOOT_168_diecimila.hex'
p316
ssS'upload'
p317
(dp318
S'maximum_size'
p319
S'14336'
p320
sS'speed'
p321
S'19200'
p322
sS'maximum_data_size'
p323
S'1024'
p324
ssS'_'
p325
S'ATmega168'
p326
sS'build'
p327
(dp328
S'mcu'
p329
S'atmega168'
p330
sssS'atmega328'
p331
(dp332
S'bootloader'
p333
(dp334
S'extended_fuses'
p335
S'0x05'
p336
sS'high_fuses'
p337
S'0xDA'
p338
sS'file'
p339
S'atmega/ATmegaBOOT_168_atmega328.hex'
p340
ssS'upload'
p341
(dp342
S'maximum_size'
p343
S'30720'
p344
sS'speed'
p345
S'57600'
p346
sS'maximum_data_size'
p347
S'2048'
p348
ssg325
S'ATmega328'
p349
sS'build'
p350
(dp351
S'mcu'
p352
S'atmega328p'
p353
sssssS'upload'
p354
(dp355
S'tool'
p356
S'avrdude'
p357
sS'protocol'
p358
S'arduino'
p359
ssS'build'
p360
(dp361
S'core'
p362
S'arduino'
p363
sS'f_cpu'
p364
S'16000000L'
p365
sS'board'
p366
S'AVR_DUEMILANOVE'
p367
sS'variant'
p368
S'standard'
p369
ssg115
S'/usr/local/share/arduino/hardware/arduino/avr'
p370
sS'bootloader'
p371
(dp372
S'low_fuses'
p373
S'0xFF'
p374
sS'lock_bits'
p375
S'0x0F'
p376
sS'tool'
p377
S'avrdude'
p378
sS'unlock_bits'
p379
S'0x3F'
p380
ssaa(lp381
S'nano'
p382
a(dp383
S'name'
p384
S'Arduino Nano'
p385
sS'menu'
p386
(dp387
S'cpu'
p388
(dp389
S'atmega168'
p390
(dp391
S'bootloader'
p392
(dp393
S'low_fuses'
p394
S'0xff'
p395
sS'extended_fuses'
p396
S'0x00'
p397
sS'high_fuses'
p398
S'0xdd'
p399
sS'file'
p400
S'atmega/ATmegaBOOT_168_diecimila.hex'
p401
ssS'upload'
p402
(dp403
S'maximum_size'
p404
S'14336'
p405
sS'speed'
p406
S'19200'
p407
sS'maximum_data_size'
p408
S'1024'
p409
ssg325
S'ATmega168'
p410
sS'build'
p411
(dp412
S'mcu'
p413
S'atmega168'
p414
sssS'atmega328'
p415
(dp416
S'bootloader'
p417
(dp418
S'low_fuses'
p419
S'0xFF'
p420
sS'extended_fuses'
p421
S'0x05'
p422
sS'high_fuses'
p423
S'0xDA'
p424
sS'file'
p425
S'atmega/ATmegaBOOT_168_atmega328.hex'
p426
ssS'upload'
p427
(dp428
S'maximum_size'
p429
S'30720'
p430
sS'speed'
p431
S'57600'
p432
sS'maximum_data_size'
p433
S'2048'
p434
ssg325
S'ATmega328'
p435
sS'build'
p436
(dp437
S'mcu'
p438
S'atmega328p'
p439
sssssS'upload'
p440
(dp441
S'tool'
p442
S'avrdude'
p443
sS'protocol'
p444
S'arduino'
p445
ssS'build'
p446
(dp447
S'core'
p448
S'arduino'
p449
sS'f_cpu'
p450
S'16000000L'
p451
sS'board'
p452
S'AVR_NANO'
p453
sS'variant'
p454
S'eightanaloginputs'
p455
ssg115
S'/usr/local/share/arduino/hardware/arduino/avr'
p456
sS'bootloader'
p457
(dp458
S'lock_bits'
p459
S'0x0F'
p460
sS'tool'
p461
S'avrdude'
p462
sS'unlock_bits'
p463
S'0x3F'
p464
ssaa(lp465
S'mega'
p466
a(dp467
S'name'
p468
S'Arduino Mega or Mega 2560'
p469
sS'vid'
p470
(dp471
g180
S'0x2341'
p472
sg72
S'0x2341'
p473
ssS'menu'
p474
(dp475
S'cpu'
p476
(dp477
S'atmega2560'
p478
(dp479
S'bootloader'
p480
(dp481
S'extended_fuses'
p482
S'0xFD'
p483
sS'high_fuses'
p484
S'0xD8'
p485
sS'file'
p486
S'stk500v2/stk500boot_v2_mega2560.hex'
p487
ssS'upload'
p488
(dp489
S'protocol'
p490
S'wiring'
p491
sS'maximum_size'
p492
S'253952'
p493
sS'speed'
p494
S'115200'
p495
ssg325
S'ATmega2560 (Mega 2560)'
p496
sS'build'
p497
(dp498
S'mcu'
p499
S'atmega2560'
p500
sS'board'
p501
S'AVR_MEGA2560'
p502
sssS'atmega1280'
p503
(dp504
S'bootloader'
p505
(dp506
S'extended_fuses'
p507
S'0xF5'
p508
sS'high_fuses'
p509
S'0xDA'
p510
sS'file'
p511
S'atmega/ATmegaBOOT_168_atmega1280.hex'
p512
ssS'upload'
p513
(dp514
S'protocol'
p515
S'arduino'
p516
sS'maximum_size'
p517
S'126976'
p518
sS'speed'
p519
S'57600'
p520
ssg325
S'ATmega1280'
p521
sS'build'
p522
(dp523
S'mcu'
p524
S'atmega1280'
p525
sS'board'
p526
S'AVR_MEGA'
p527
sssssS'pid'
p528
(dp529
g180
S'0x0042'
p530
sg72
S'0x0010'
p531
ssS'upload'
p532
(dp533
S'tool'
p534
S'avrdude'
p535
sS'maximum_data_size'
p536
S'8192'
p537
ssS'build'
p538
(dp539
S'core'
p540
S'arduino'
p541
sS'f_cpu'
p542
S'16000000L'
p543
sS'board'
p544
S'AVR_MEGA2560'
p545
sS'variant'
p546
S'mega'
p547
ssg115
S'/usr/local/share/arduino/hardware/arduino/avr'
p548
sS'bootloader'
p549
(dp550
S'low_fuses'
p551
S'0xFF'
p552
sS'lock_bits'
p553
S'0x0F'
p554
sS'tool'
p555
S'avrdude'
p556
sS'unlock_bits'
p557
S'0x3F'
p558
ssaa(lp559
S'megaADK'
p560
a(dp561
S'name'
p562
S'Arduino Mega ADK'
p563
sS'vid'
p564
(dp565
g180
S'0x2341'
p566
sg72
S'0x2341'
p567
ssS'pid'
p568
(dp569
g180
S'0x0044'
p570
sg72
S'0x003f'
p571
ssS'upload'
p572
(dp573
S'protocol'
p574
S'wiring'
p575
sS'tool'
p576
S'avrdude'
p577
sS'speed'
p578
S'115200'
p579
sS'maximum_size'
p580
S'253952'
p581
sS'maximum_data_size'
p582
S'8192'
p583
ssS'build'
p584
(dp585
S'core'
p586
S'arduino'
p587
sS'mcu'
p588
S'atmega2560'
p589
sS'f_cpu'
p590
S'16000000L'
p591
sS'board'
p592
S'AVR_ADK'
p593
sS'variant'
p594
S'mega'
p595
ssg115
S'/usr/local/share/arduino/hardware/arduino/avr'
p596
sS'bootloader'
p597
(dp598
S'extended_fuses'
p599
S'0xFD'
p600
sS'high_fuses'
p601
S'0xD8'
p602
sS'low_fuses'
p603
S'0xFF'
p604
sS'lock_bits'
p605
S'0x0F'
p606
sS'tool'
p607
S'avrdude'
p608
sS'file'
p609
S'stk500v2/stk500boot_v2_mega2560.hex'
p610
sS'unlock_bits'
p611
S'0x3F'
p612
ssaa(lp613
S'leonardo'
p614
a(dp615
S'name'
p616
S'Arduino Leonardo'
p617
sS'vid'
p618
(dp619
g180
S'0x2341'
p620
sg72
S'0x2341'
p621
ssS'pid'
p622
(dp623
g180
S'0x8036'
p624
sg72
S'0x0036'
p625
ssS'upload'
p626
(dp627
S'protocol'
p628
S'avr109'
p629
sS'disable_flushing'
p630
S'true'
p631
sS'tool'
p632
S'avrdude'
p633
sS'maximum_data_size'
p634
S'2560'
p635
sS'maximum_size'
p636
S'28672'
p637
sS'use_1200bps_touch'
p638
S'true'
p639
sS'speed'
p640
S'57600'
p641
sS'wait_for_upload_port'
p642
S'true'
p643
ssS'build'
p644
(dp645
S'core'
p646
S'arduino'
p647
sS'f_cpu'
p648
S'16000000L'
p649
sS'vid'
p650
S'0x2341'
p651
sS'usb_product'
p652
S'"Arduino Leonardo"'
p653
sS'pid'
p654
S'0x8036'
p655
sS'extra_flags'
p656
S'{build.usb_flags}'
p657
sS'board'
p658
S'AVR_LEONARDO'
p659
sS'mcu'
p660
S'atmega32u4'
p661
sS'variant'
p662
S'leonardo'
p663
ssg115
S'/usr/local/share/arduino/hardware/arduino/avr'
p664
sS'bootloader'
p665
(dp666
S'extended_fuses'
p667
S'0xcb'
p668
sS'high_fuses'
p669
S'0xd8'
p670
sS'low_fuses'
p671
S'0xff'
p672
sS'lock_bits'
p673
S'0x2F'
p674
sS'tool'
p675
S'avrdude'
p676
sS'file'
p677
S'caterina/Caterina-Leonardo.hex'
p678
sS'unlock_bits'
p679
S'0x3F'
p680
ssaa(lp681
S'micro'
p682
a(dp683
g115
S'/usr/local/share/arduino/hardware/arduino/avr'
p684
sS'bootloader'
p685
(dp686
S'extended_fuses'
p687
S'0xcb'
p688
sS'high_fuses'
p689
S'0xd8'
p690
sS'low_fuses'
p691
S'0xff'
p692
sS'lock_bits'
p693
S'0x2F'
p694
sS'tool'
p695
S'avrdude'
p696
sS'file'
p697
S'caterina/Caterina-Micro.hex'
p698
sS'unlock_bits'
p699
S'0x3F'
p700
ssS'upload'
p701
(dp702
S'protocol'
p703
S'avr109'
p704
sS'disable_flushing'
p705
S'true'
p706
sS'tool'
p707
S'avrdude'
p708
sS'maximum_data_size'
p709
S'2560'
p710
sS'maximum_size'
p711
S'28672'
p712
sS'use_1200bps_touch'
p713
S'true'
p714
sS'speed'
p715
S'57600'
p716
sS'wait_for_upload_port'
p717
S'true'
p718
ssS'name'
p719
S'Arduino Micro'
p720
sS'build'
p721
(dp722
S'core'
p723
S'arduino'
p724
sS'f_cpu'
p725
S'16000000L'
p726
sS'vid'
p727
S'0x2341'
p728
sS'usb_product'
p729
S'"Arduino Micro"'
p730
sS'pid'
p731
S'0x8037'
p732
sS'extra_flags'
p733
S'{build.usb_flags}'
p734
sS'board'
p735
S'AVR_MICRO'
p736
sS'mcu'
p737
S'atmega32u4'
p738
sS'variant'
p739
S'micro'
p740
ssaa(lp741
S'esplora'
p742
a(dp743
S'name'
p744
S'Arduino Esplora'
p745
sS'vid'
p746
(dp747
g180
S'0x2341'
p748
sg72
S'0x2341'
p749
ssS'pid'
p750
(dp751
g180
S'0x803c'
p752
sg72
S'0x003c'
p753
ssS'upload'
p754
(dp755
S'protocol'
p756
S'avr109'
p757
sS'disable_flushing'
p758
S'true'
p759
sS'tool'
p760
S'avrdude'
p761
sS'maximum_data_size'
p762
S'2560'
p763
sS'maximum_size'
p764
S'28672'
p765
sS'use_1200bps_touch'
p766
S'true'
p767
sS'speed'
p768
S'57600'
p769
sS'wait_for_upload_port'
p770
S'true'
p771
ssS'build'
p772
(dp773
S'core'
p774
S'arduino'
p775
sS'f_cpu'
p776
S'16000000L'
p777
sS'vid'
p778
S'0x2341'
p779
sS'usb_product'
p780
S'"Arduino Esplora"'
p781
sS'pid'
p782
S'0x803c'
p783
sS'extra_flags'
p784
S'{build.usb_flags}'
p785
sS'board'
p786
S'AVR_ESPLORA'
p787
sS'mcu'
p788
S'atmega32u4'
p789
sS'variant'
p790
S'leonardo'
p791
ssg115
S'/usr/local/share/arduino/hardware/arduino/avr'
p792
sS'bootloader'
p793
(dp794
S'extended_fuses'
p795
S'0xcb'
p796
sS'high_fuses'
p797
S'0xd8'
p798
sS'low_fuses'
p799
S'0xff'
p800
sS'lock_bits'
p801
S'0x2F'
p802
sS'tool'
p803
S'avrdude'
p804
sS'file'
p805
S'caterina/Caterina-Esplora.hex'
p806
sS'unlock_bits'
p807
S'0x3F'
p808
ssaa(lp809
S'mini'
p810
a(dp811
S'name'
p812
S'Arduino Mini'
p813
sS'menu'
p814
(dp815
S'cpu'
p816
(dp817
S'atmega168'
p818
(dp819
S'bootloader'
p820
(dp821
S'extended_fuses'
p822
S'0x00'
p823
sS'high_fuses'
p824
S'0xdd'
p825
sS'file'
p826
S'atmega/ATmegaBOOT_168_ng.hex'
p827
ssS'upload'
p828
(dp829
S'maximum_size'
p830
S'14336'
p831
sS'speed'
p832
S'19200'
p833
sS'maximum_data_size'
p834
S'1024'
p835
ssg325
S'ATmega168'
p836
sS'build'
p837
(dp838
S'mcu'
p839
S'atmega168'
p840
sssS'atmega328'
p841
(dp842
S'bootloader'
p843
(dp844
S'extended_fuses'
p845
S'0x05'
p846
sS'high_fuses'
p847
S'0xd8'
p848
sS'file'
p849
S'optiboot/optiboot_atmega328-Mini.hex'
p850
ssS'upload'
p851
(dp852
S'maximum_size'
p853
S'28672'
p854
sS'speed'
p855
S'115200'
p856
sS'maximum_data_size'
p857
S'2048'
p858
ssg325
S'ATmega328'
p859
sS'build'
p860
(dp861
S'mcu'
p862
S'atmega328p'
p863
sssssS'upload'
p864
(dp865
S'tool'
p866
S'avrdude'
p867
sS'protocol'
p868
S'arduino'
p869
ssS'build'
p870
(dp871
S'core'
p872
S'arduino'
p873
sS'f_cpu'
p874
S'16000000L'
p875
sS'board'
p876
S'AVR_MINI'
p877
sS'variant'
p878
S'eightanaloginputs'
p879
ssg115
S'/usr/local/share/arduino/hardware/arduino/avr'
p880
sS'bootloader'
p881
(dp882
S'low_fuses'
p883
S'0xff'
p884
sS'lock_bits'
p885
S'0x0F'
p886
sS'tool'
p887
S'avrdude'
p888
sS'unlock_bits'
p889
S'0x3F'
p890
ssaa(lp891
S'ethernet'
p892
a(dp893
g115
S'/usr/local/share/arduino/hardware/arduino/avr'
p894
sS'bootloader'
p895
(dp896
S'extended_fuses'
p897
S'0x05'
p898
sS'high_fuses'
p899
S'0xde'
p900
sS'low_fuses'
p901
S'0xff'
p902
sS'lock_bits'
p903
S'0x0F'
p904
sS'tool'
p905
S'avrdude'
p906
sS'file'
p907
S'optiboot/optiboot_atmega328.hex'
p908
sS'unlock_bits'
p909
S'0x3F'
p910
ssS'upload'
p911
(dp912
S'protocol'
p913
S'arduino'
p914
sS'tool'
p915
S'avrdude'
p916
sS'speed'
p917
S'115200'
p918
sS'maximum_size'
p919
S'32256'
p920
sS'maximum_data_size'
p921
S'2048'
p922
ssS'name'
p923
S'Arduino Ethernet'
p924
sS'build'
p925
(dp926
S'variant'
p927
S'ethernet'
p928
sS'mcu'
p929
S'atmega328p'
p930
sS'f_cpu'
p931
S'16000000L'
p932
sS'board'
p933
S'AVR_ETHERNET'
p934
sS'core'
p935
S'arduino'
p936
ssaa(lp937
S'fio'
p938
a(dp939
g115
S'/usr/local/share/arduino/hardware/arduino/avr'
p940
sS'bootloader'
p941
(dp942
S'extended_fuses'
p943
S'0x05'
p944
sS'high_fuses'
p945
S'0xDA'
p946
sS'low_fuses'
p947
S'0xFF'
p948
sS'lock_bits'
p949
S'0x0F'
p950
sS'tool'
p951
S'avrdude'
p952
sS'file'
p953
S'atmega/ATmegaBOOT_168_atmega328_pro_8MHz.hex'
p954
sS'unlock_bits'
p955
S'0x3F'
p956
ssS'upload'
p957
(dp958
S'protocol'
p959
S'arduino'
p960
sS'tool'
p961
S'avrdude'
p962
sS'speed'
p963
S'57600'
p964
sS'maximum_size'
p965
S'30720'
p966
sS'maximum_data_size'
p967
S'2048'
p968
ssS'name'
p969
S'Arduino Fio'
p970
sS'build'
p971
(dp972
S'core'
p973
S'arduino'
p974
sS'mcu'
p975
S'atmega328p'
p976
sS'f_cpu'
p977
S'8000000L'
p978
sS'board'
p979
S'AVR_FIO'
p980
sS'variant'
p981
S'eightanaloginputs'
p982
ssaa(lp983
S'bt'
p984
a(dp985
S'name'
p986
S'Arduino BT'
p987
sS'menu'
p988
(dp989
S'cpu'
p990
(dp991
S'atmega168'
p992
(dp993
S'bootloader'
p994
(dp995
S'extended_fuses'
p996
S'0x00'
p997
sS'high_fuses'
p998
S'0xdd'
p999
sS'file'
p1000
S'bt/ATmegaBOOT_168.hex'
p1001
ssS'upload'
p1002
(dp1003
S'maximum_size'
p1004
S'14336'
p1005
sS'maximum_data_size'
p1006
S'1024'
p1007
ssg325
S'ATmega168'
p1008
sS'build'
p1009
(dp1010
S'mcu'
p1011
S'atmega168'
p1012
sssS'atmega328'
p1013
(dp1014
S'bootloader'
p1015
(dp1016
S'extended_fuses'
p1017
S'0x05'
p1018
sS'high_fuses'
p1019
S'0xd8'
p1020
sS'file'
p1021
S'bt/ATmegaBOOT_168_atmega328_bt.hex'
p1022
ssS'upload'
p1023
(dp1024
S'maximum_size'
p1025
S'28672'
p1026
sS'maximum_data_size'
p1027
S'2048'
p1028
ssg325
S'ATmega328'
p1029
sS'build'
p1030
(dp1031
S'mcu'
p1032
S'atmega328p'
p1033
sssssS'upload'
p1034
(dp1035
S'protocol'
p1036
S'arduino'
p1037
sS'tool'
p1038
S'avrdude'
p1039
sS'speed'
p1040
S'19200'
p1041
sS'disable_flushing'
p1042
S'true'
p1043
ssS'build'
p1044
(dp1045
S'core'
p1046
S'arduino'
p1047
sS'f_cpu'
p1048
S'16000000L'
p1049
sS'board'
p1050
S'AVR_BT'
p1051
sS'variant'
p1052
S'eightanaloginputs'
p1053
ssg115
S'/usr/local/share/arduino/hardware/arduino/avr'
p1054
sS'bootloader'
p1055
(dp1056
S'low_fuses'
p1057
S'0xff'
p1058
sS'lock_bits'
p1059
S'0x0F'
p1060
sS'tool'
p1061
S'avrdude'
p1062
sS'unlock_bits'
p1063
S'0x3F'
p1064
ssaa(lp1065
S'LilyPadUSB'
p1066
a(dp1067
g115
S'/usr/local/share/arduino/hardware/arduino/avr'
p1068
sS'bootloader'
p1069
(dp1070
S'extended_fuses'
p1071
S'0xce'
p1072
sS'high_fuses'
p1073
S'0xd8'
p1074
sS'low_fuses'
p1075
S'0xff'
p1076
sS'lock_bits'
p1077
S'0x2F'
p1078
sS'tool'
p1079
S'avrdude'
p1080
sS'file'
p1081
S'caterina-LilyPadUSB/Caterina-LilyPadUSB.hex'
p1082
sS'unlock_bits'
p1083
S'0x3F'
p1084
ssS'upload'
p1085
(dp1086
S'protocol'
p1087
S'avr109'
p1088
sS'disable_flushing'
p1089
S'true'
p1090
sS'tool'
p1091
S'avrdude'
p1092
sS'maximum_data_size'
p1093
S'2560'
p1094
sS'maximum_size'
p1095
S'28672'
p1096
sS'use_1200bps_touch'
p1097
S'true'
p1098
sS'speed'
p1099
S'57600'
p1100
sS'wait_for_upload_port'
p1101
S'true'
p1102
ssS'name'
p1103
S'LilyPad Arduino USB'
p1104
sS'build'
p1105
(dp1106
S'core'
p1107
S'arduino'
p1108
sS'f_cpu'
p1109
S'8000000L'
p1110
sS'vid'
p1111
S'0x1B4F'
p1112
sS'usb_product'
p1113
S'"LilyPad USB"'
p1114
sS'pid'
p1115
S'0x9208'
p1116
sS'extra_flags'
p1117
S'{build.usb_flags}'
p1118
sS'board'
p1119
S'AVR_LILYPAD_USB'
p1120
sS'mcu'
p1121
S'atmega32u4'
p1122
sS'variant'
p1123
S'leonardo'
p1124
ssaa(lp1125
S'lilypad'
p1126
a(dp1127
S'name'
p1128
S'LilyPad Arduino'
p1129
sS'menu'
p1130
(dp1131
S'cpu'
p1132
(dp1133
S'atmega168'
p1134
(dp1135
S'bootloader'
p1136
(dp1137
S'low_fuses'
p1138
S'0xe2'
p1139
sS'extended_fuses'
p1140
S'0x00'
p1141
sS'high_fuses'
p1142
S'0xdd'
p1143
sS'file'
p1144
S'lilypad/LilyPadBOOT_168.hex'
p1145
ssS'upload'
p1146
(dp1147
S'maximum_size'
p1148
S'14336'
p1149
sS'speed'
p1150
S'19200'
p1151
sS'maximum_data_size'
p1152
S'1024'
p1153
ssg325
S'ATmega168'
p1154
sS'build'
p1155
(dp1156
S'mcu'
p1157
S'atmega168'
p1158
sssS'atmega328'
p1159
(dp1160
S'bootloader'
p1161
(dp1162
S'low_fuses'
p1163
S'0xFF'
p1164
sS'extended_fuses'
p1165
S'0x05'
p1166
sS'high_fuses'
p1167
S'0xDA'
p1168
sS'file'
p1169
S'atmega/ATmegaBOOT_168_atmega328_pro_8MHz.hex'
p1170
ssS'upload'
p1171
(dp1172
S'maximum_size'
p1173
S'30720'
p1174
sS'speed'
p1175
S'57600'
p1176
sS'maximum_data_size'
p1177
S'2048'
p1178
ssg325
S'ATmega328'
p1179
sS'build'
p1180
(dp1181
S'mcu'
p1182
S'atmega328p'
p1183
sssssS'upload'
p1184
(dp1185
S'tool'
p1186
S'avrdude'
p1187
sS'protocol'
p1188
S'arduino'
p1189
ssS'build'
p1190
(dp1191
S'core'
p1192
S'arduino'
p1193
sS'f_cpu'
p1194
S'8000000L'
p1195
sS'board'
p1196
S'AVR_LILYPAD'
p1197
sS'variant'
p1198
S'standard'
p1199
ssg115
S'/usr/local/share/arduino/hardware/arduino/avr'
p1200
sS'bootloader'
p1201
(dp1202
S'lock_bits'
p1203
S'0x0F'
p1204
sS'tool'
p1205
S'avrdude'
p1206
sS'unlock_bits'
p1207
S'0x3F'
p1208
ssaa(lp1209
S'pro'
p1210
a(dp1211
S'name'
p1212
S'Arduino Pro or Pro Mini'
p1213
sS'menu'
p1214
(dp1215
S'cpu'
p1216
(dp1217
S'16MHzatmega328'
p1218
(dp1219
S'bootloader'
p1220
(dp1221
S'low_fuses'
p1222
S'0xFF'
p1223
sS'extended_fuses'
p1224
S'0x05'
p1225
sS'high_fuses'
p1226
S'0xDA'
p1227
sS'file'
p1228
S'atmega/ATmegaBOOT_168_atmega328.hex'
p1229
ssS'upload'
p1230
(dp1231
S'maximum_size'
p1232
S'30720'
p1233
sS'speed'
p1234
S'57600'
p1235
sS'maximum_data_size'
p1236
S'2048'
p1237
ssg325
S'ATmega328 (5V, 16 MHz)'
p1238
sS'build'
p1239
(dp1240
S'mcu'
p1241
S'atmega328p'
p1242
sS'f_cpu'
p1243
S'16000000L'
p1244
sssS'8MHzatmega328'
p1245
(dp1246
S'bootloader'
p1247
(dp1248
S'low_fuses'
p1249
S'0xFF'
p1250
sS'extended_fuses'
p1251
S'0x05'
p1252
sS'high_fuses'
p1253
S'0xDA'
p1254
sS'file'
p1255
S'atmega/ATmegaBOOT_168_atmega328_pro_8MHz.hex'
p1256
ssS'upload'
p1257
(dp1258
S'maximum_size'
p1259
S'30720'
p1260
sS'speed'
p1261
S'57600'
p1262
sS'maximum_data_size'
p1263
S'2048'
p1264
ssg325
S'ATmega328 (3.3V, 8 MHz)'
p1265
sS'build'
p1266
(dp1267
S'mcu'
p1268
S'atmega328p'
p1269
sS'f_cpu'
p1270
S'8000000L'
p1271
sssS'8MHzatmega168'
p1272
(dp1273
S'bootloader'
p1274
(dp1275
S'low_fuses'
p1276
S'0xc6'
p1277
sS'extended_fuses'
p1278
S'0x00'
p1279
sS'high_fuses'
p1280
S'0xdd'
p1281
sS'file'
p1282
S'atmega/ATmegaBOOT_168_pro_8MHz.hex'
p1283
ssS'upload'
p1284
(dp1285
S'maximum_size'
p1286
S'14336'
p1287
sS'speed'
p1288
S'19200'
p1289
sS'maximum_data_size'
p1290
S'1024'
p1291
ssg325
S'ATmega168 (3.3V, 8 MHz)'
p1292
sS'build'
p1293
(dp1294
S'mcu'
p1295
S'atmega168'
p1296
sS'f_cpu'
p1297
S'8000000L'
p1298
sssS'16MHzatmega168'
p1299
(dp1300
S'bootloader'
p1301
(dp1302
S'low_fuses'
p1303
S'0xff'
p1304
sS'extended_fuses'
p1305
S'0x00'
p1306
sS'high_fuses'
p1307
S'0xdd'
p1308
sS'file'
p1309
S'atmega/ATmegaBOOT_168_diecimila.hex'
p1310
ssS'upload'
p1311
(dp1312
S'maximum_size'
p1313
S'14336'
p1314
sS'speed'
p1315
S'19200'
p1316
sS'maximum_data_size'
p1317
S'1024'
p1318
ssg325
S'ATmega168 (5V, 16 MHz)'
p1319
sS'build'
p1320
(dp1321
S'mcu'
p1322
S'atmega168'
p1323
sS'f_cpu'
p1324
S'16000000L'
p1325
sssssS'upload'
p1326
(dp1327
S'tool'
p1328
S'avrdude'
p1329
sS'protocol'
p1330
S'arduino'
p1331
ssS'build'
p1332
(dp1333
S'core'
p1334
S'arduino'
p1335
sS'variant'
p1336
S'eightanaloginputs'
p1337
sS'board'
p1338
S'AVR_PRO'
p1339
ssg115
S'/usr/local/share/arduino/hardware/arduino/avr'
p1340
sS'bootloader'
p1341
(dp1342
S'lock_bits'
p1343
S'0x0F'
p1344
sS'tool'
p1345
S'avrdude'
p1346
sS'unlock_bits'
p1347
S'0x3F'
p1348
ssaa(lp1349
S'atmegang'
p1350
a(dp1351
S'name'
p1352
S'Arduino NG or older'
p1353
sS'menu'
p1354
(dp1355
S'cpu'
p1356
(dp1357
S'atmega168'
p1358
(dp1359
S'bootloader'
p1360
(dp1361
S'low_fuses'
p1362
S'0xff'
p1363
sS'extended_fuses'
p1364
S'0x00'
p1365
sS'high_fuses'
p1366
S'0xdd'
p1367
sS'file'
p1368
S'atmega/ATmegaBOOT_168_ng.hex'
p1369
ssS'upload'
p1370
(dp1371
S'maximum_size'
p1372
S'14336'
p1373
sS'maximum_data_size'
p1374
S'1024'
p1375
ssg325
S'ATmega168'
p1376
sS'build'
p1377
(dp1378
S'mcu'
p1379
S'atmega168'
p1380
sssS'atmega8'
p1381
(dp1382
S'bootloader'
p1383
(dp1384
S'low_fuses'
p1385
S'0xdf'
p1386
sS'high_fuses'
p1387
S'0xca'
p1388
sS'file'
p1389
S'atmega8/ATmegaBOOT-prod-firmware-2009-11-07.hex'
p1390
ssS'upload'
p1391
(dp1392
S'maximum_size'
p1393
S'7168'
p1394
sS'maximum_data_size'
p1395
S'1024'
p1396
ssg325
S'ATmega8'
p1397
sS'build'
p1398
(dp1399
S'mcu'
p1400
S'atmega8'
p1401
sssssS'upload'
p1402
(dp1403
S'protocol'
p1404
S'arduino'
p1405
sS'tool'
p1406
S'avrdude'
p1407
sS'speed'
p1408
S'19200'
p1409
ssS'build'
p1410
(dp1411
S'core'
p1412
S'arduino'
p1413
sS'mcu'
p1414
S'atmegang'
p1415
sS'f_cpu'
p1416
S'16000000L'
p1417
sS'board'
p1418
S'AVR_NG'
p1419
sS'variant'
p1420
S'standard'
p1421
ssg115
S'/usr/local/share/arduino/hardware/arduino/avr'
p1422
sS'bootloader'
p1423
(dp1424
S'lock_bits'
p1425
S'0x0F'
p1426
sS'tool'
p1427
S'avrdude'
p1428
sS'unlock_bits'
p1429
S'0x3F'
p1430
ssaa(lp1431
S'robotControl'
p1432
a(dp1433
g115
S'/usr/local/share/arduino/hardware/arduino/avr'
p1434
sS'bootloader'
p1435
(dp1436
S'extended_fuses'
p1437
S'0xcb'
p1438
sS'high_fuses'
p1439
S'0xd8'
p1440
sS'low_fuses'
p1441
S'0xff'
p1442
sS'lock_bits'
p1443
S'0x2F'
p1444
sS'tool'
p1445
S'avrdude'
p1446
sS'file'
p1447
S'caterina-Arduino_Robot/Caterina-Robot-Control.hex'
p1448
sS'unlock_bits'
p1449
S'0x3F'
p1450
ssS'upload'
p1451
(dp1452
S'protocol'
p1453
S'avr109'
p1454
sS'disable_flushing'
p1455
S'true'
p1456
sS'tool'
p1457
S'avrdude'
p1458
sS'maximum_data_size'
p1459
S'2560'
p1460
sS'maximum_size'
p1461
S'28672'
p1462
sS'use_1200bps_touch'
p1463
S'true'
p1464
sS'speed'
p1465
S'57600'
p1466
sS'wait_for_upload_port'
p1467
S'true'
p1468
ssS'name'
p1469
S'Arduino Robot Control'
p1470
sS'build'
p1471
(dp1472
S'core'
p1473
S'arduino'
p1474
sS'f_cpu'
p1475
S'16000000L'
p1476
sS'vid'
p1477
S'0x2341'
p1478
sS'usb_product'
p1479
S'"Robot Control"'
p1480
sS'pid'
p1481
S'0x8038'
p1482
sS'extra_flags'
p1483
S'{build.usb_flags}'
p1484
sS'board'
p1485
S'AVR_ROBOT_CONTROL'
p1486
sS'mcu'
p1487
S'atmega32u4'
p1488
sS'variant'
p1489
S'robot_control'
p1490
ssaa(lp1491
S'robotMotor'
p1492
a(dp1493
g115
S'/usr/local/share/arduino/hardware/arduino/avr'
p1494
sS'bootloader'
p1495
(dp1496
S'extended_fuses'
p1497
S'0xcb'
p1498
sS'high_fuses'
p1499
S'0xd8'
p1500
sS'low_fuses'
p1501
S'0xff'
p1502
sS'lock_bits'
p1503
S'0x2F'
p1504
sS'tool'
p1505
S'avrdude'
p1506
sS'file'
p1507
S'caterina-Arduino_Robot/Caterina-Robot-Motor.hex'
p1508
sS'unlock_bits'
p1509
S'0x3F'
p1510
ssS'upload'
p1511
(dp1512
S'protocol'
p1513
S'avr109'
p1514
sS'disable_flushing'
p1515
S'true'
p1516
sS'tool'
p1517
S'avrdude'
p1518
sS'maximum_data_size'
p1519
S'2560'
p1520
sS'maximum_size'
p1521
S'28672'
p1522
sS'use_1200bps_touch'
p1523
S'true'
p1524
sS'speed'
p1525
S'57600'
p1526
sS'wait_for_upload_port'
p1527
S'true'
p1528
ssS'name'
p1529
S'Arduino Robot Motor'
p1530
sS'build'
p1531
(dp1532
S'core'
p1533
S'arduino'
p1534
sS'f_cpu'
p1535
S'16000000L'
p1536
sS'vid'
p1537
S'0x2341'
p1538
sS'usb_product'
p1539
S'"Robot Motor"'
p1540
sS'pid'
p1541
S'0x8039'
p1542
sS'extra_flags'
p1543
S'{build.usb_flags}'
p1544
sS'board'
p1545
S'AVR_ROBOT_MOTOR'
p1546
sS'mcu'
p1547
S'atmega32u4'
p1548
sS'variant'
p1549
S'robot_motor'
p1550
ssaatp1551
Rp1552
(dp1553
S'default'
p1554
S'uno'
p1555
sbtp1556
a(S'used_libs'
p1557
(lp1558
S'lib/TFTv2'
p1559
aS'lib/SPI'
p1560
aS'/usr/local/share/arduino/hardware/arduino/avr/cores/arduino'
p1561
atp1562
a(S'make'
p1563
S'/usr/bin/make'
p1564
tp1565
a(S'build_dir'
p1566
S'.build/uno'
p1567
tp1568
a(S'cc'
p1569
S'/usr/local/share/arduino/hardware/tools/avr/bin/avr-gcc'
p1570
tp1571
a(S'cflags'
p1572
g2
(g3
g4
(lp1573
tp1574
Rp1575
tp1576
a(S'cxxflags'
p1577
g2
(g3
g4
(lp1578
S'-fno-exceptions'
p1579
atp1580
Rp1581
tp1582
a(S'arduino_variants_dir'
p1583
S'/usr/local/share/arduino/hardware/arduino/avr/variants'
p1584
tp1585
a(S'stty'
p1586
S'/bin/stty'
p1587
tp1588
a(S'version.txt'
p1589
S'/usr/local/share/arduino/lib/version.txt'
p1590
tp1591
a(S'arduino_core_dir'
p1592
g1561
tp1593
a(S'boards.txt'
p1594
(lp1595
S'/usr/local/share/arduino/hardware/arduino/sam/boards.txt'
p1596
aS'/usr/local/share/arduino/hardware/arduino/avr/boards.txt'
p1597
atp1598
a(S'avrdude.conf'
p1599
S'/usr/local/share/arduino/hardware/tools/avr/etc/avrdude.conf'
p1600
tp1601
a(S'deps'
p1602
g2
(g3
g4
(lp1603
S'.build/uno/src/dependencies.d'
p1604
aS'.build/uno/TFTv2/dependencies.d'
p1605
aS'.build/uno/SPI/dependencies.d'
p1606
aS'.build/uno/arduino/dependencies.d'
p1607
atp1608
Rp1609
tp1610
a.