(lp0
(S'cppflags'
p1
ccopy_reg
_reconstructor
p2
(cino.utils
SpaceList
p3
c__builtin__
list
p4
(lp5
S'-mmcu=atmega328p'
p6
aS'-DF_CPU=16000000L'
p7
aS'-DARDUINO=160'
p8
aS'-I/usr/local/share/arduino/hardware/arduino/avr/cores/arduino'
p9
aS'-ffunction-sections'
p10
aS'-fdata-sections'
p11
aS'-g'
p12
aS'-Os'
p13
aS'-w'
p14
aS'-I/usr/local/share/arduino/hardware/arduino/avr/variants/standard'
p15
aS'-I/usr/local/share/arduino/hardware/arduino/avr/cores/arduino'
p16
atp17
Rp18
tp19
a(S'version.txt'
p20
S'/usr/local/share/arduino/lib/version.txt'
p21
tp22
a(S'used_libs'
p23
(lp24
S'/usr/local/share/arduino/hardware/arduino/avr/cores/arduino'
p25
atp26
a(S'cc'
p27
S'/usr/local/share/arduino/hardware/tools/avr/bin/avr-gcc'
p28
tp29
a(S'make'
p30
S'/usr/bin/make'
p31
tp32
a(S'build_dir'
p33
S'.build/uno'
p34
tp35
a(S'arduino_core_dir'
p36
g25
tp37
a(S'boards.txt'
p38
(lp39
S'/usr/local/share/arduino/hardware/arduino/sam/boards.txt'
p40
aS'/usr/local/share/arduino/hardware/arduino/avr/boards.txt'
p41
atp42
a(S'cxxflags'
p43
g2
(g3
g4
(lp44
S'-fno-exceptions'
p45
atp46
Rp47
tp48
a(S'arduino_variants_dir'
p49
S'/usr/local/share/arduino/hardware/arduino/avr/variants'
p50
tp51
a(S'deps'
p52
g2
(g3
g4
(lp53
S'.build/uno/src/dependencies.d'
p54
aS'.build/uno/arduino/dependencies.d'
p55
atp56
Rp57
tp58
a(S'ar'
p59
S'/usr/local/share/arduino/hardware/tools/avr/bin/avr-ar'
p60
tp61
a(S'names'
p62
(dp63
S'cpp'
p64
S'%s.cpp'
p65
sS'obj'
p66
S'%s.o'
p67
sg52
S'%s.d'
p68
sS'lib'
p69
S'lib%s.a'
p70
stp71
a(S'cflags'
p72
g2
(g3
g4
(lp73
tp74
Rp75
tp76
a(S'ldflags'
p77
g2
(g3
g4
(lp78
g6
aS'-Wl,-Os'
p79
aS'-Wl,--gc-sections'
p80
atp81
Rp82
tp83
a(S'arduino_libraries_dir'
p84
S'/usr/local/share/arduino/libraries'
p85
tp86
a(S'arduino_lib_version'
p87
g2
(cino.environment
Version
p88
c__builtin__
tuple
p89
(I1
I6
I0
tp90
tp91
Rp92
tp93
a(S'objcopy'
p94
S'/usr/local/share/arduino/hardware/tools/avr/bin/avr-objcopy'
p95
tp96
a(S'board_models'
p97
cino.environment
BoardModels
p98
((lp99
(lp100
S'arduino_due_x_dbg'
p101
a(dp102
S'name'
p103
S'Arduino Due (Programming Port)'
p104
sS'vid'
p105
(dp106
S'0'
p107
S'0x2341'
p108
ssS'pid'
p109
(dp110
g107
S'0x003d'
p111
ssS'upload'
p112
(dp113
S'protocol'
p114
S'sam-ba'
p115
sS'wait_for_upload_port'
p116
S'false'
p117
sS'tool'
p118
S'bossac'
p119
sS'native_usb'
p120
S'false'
p121
sS'maximum_size'
p122
S'524288'
p123
sS'use_1200bps_touch'
p124
S'true'
p125
ssS'build'
p126
(dp127
S'core'
p128
S'arduino'
p129
sS'f_cpu'
p130
S'84000000L'
p131
sS'vid'
p132
S'0x2341'
p133
sS'usb_product'
p134
S'"Arduino Due"'
p135
sS'pid'
p136
S'0x003e'
p137
sS'variant'
p138
S'arduino_due_x'
p139
sS'extra_flags'
p140
S'-D__SAM3X8E__ -mthumb {build.usb_flags}'
p141
sS'variant_system_lib'
p142
S'libsam_sam3x8e_gcc_rel.a'
p143
sS'board'
p144
S'SAM_DUE'
p145
sS'ldscript'
p146
S'linker_scripts/gcc/flash.ld'
p147
sS'mcu'
p148
S'cortex-m3'
p149
ssS'_coredir'
p150
S'/usr/local/share/arduino/hardware/arduino/sam'
p151
saa(lp152
S'arduino_due_x'
p153
a(dp154
S'name'
p155
S'Arduino Due (Native USB Port)'
p156
sS'vid'
p157
(dp158
g107
S'0x2341'
p159
ssS'pid'
p160
(dp161
g107
S'0x003e'
p162
ssS'upload'
p163
(dp164
S'protocol'
p165
S'sam-ba'
p166
sS'wait_for_upload_port'
p167
S'true'
p168
sS'tool'
p169
S'bossac'
p170
sS'native_usb'
p171
S'true'
p172
sS'maximum_size'
p173
S'524288'
p174
sS'use_1200bps_touch'
p175
S'true'
p176
ssS'build'
p177
(dp178
S'core'
p179
S'arduino'
p180
sS'f_cpu'
p181
S'84000000L'
p182
sS'vid'
p183
S'0x2341'
p184
sS'usb_product'
p185
S'"Arduino Due"'
p186
sS'pid'
p187
S'0x003e'
p188
sS'variant'
p189
S'arduino_due_x'
p190
sS'extra_flags'
p191
S'-D__SAM3X8E__ -mthumb {build.usb_flags}'
p192
sS'variant_system_lib'
p193
S'libsam_sam3x8e_gcc_rel.a'
p194
sS'board'
p195
S'SAM_DUE'
p196
sS'ldscript'
p197
S'linker_scripts/gcc/flash.ld'
p198
sS'mcu'
p199
S'cortex-m3'
p200
ssg150
S'/usr/local/share/arduino/hardware/arduino/sam'
p201
saa(lp202
S'menu'
p203
a(dp204
S'cpu'
p205
S'Processor'
p206
sg150
S'/usr/local/share/arduino/hardware/arduino/avr'
p207
saa(lp208
S'yun'
p209
a(dp210
S'name'
p211
S'Arduino Y\xc3\xban'
p212
sS'vid'
p213
(dp214
S'1'
p215
S'0x2341'
p216
sg107
S'0x2341'
p217
ssS'pid'
p218
(dp219
g215
S'0x8041'
p220
sg107
S'0x0041'
p221
ssS'upload'
p222
(dp223
S'protocol'
p224
S'avr109'
p225
sS'disable_flushing'
p226
S'true'
p227
sS'tool'
p228
S'avrdude'
p229
sS'maximum_data_size'
p230
S'2560'
p231
sS'via_ssh'
p232
S'true'
p233
sS'maximum_size'
p234
S'28672'
p235
sS'use_1200bps_touch'
p236
S'true'
p237
sS'speed'
p238
S'57600'
p239
sS'wait_for_upload_port'
p240
S'true'
p241
ssS'build'
p242
(dp243
S'core'
p244
S'arduino'
p245
sS'f_cpu'
p246
S'16000000L'
p247
sS'vid'
p248
S'0x2341'
p249
sS'usb_product'
p250
S'"Arduino Yun"'
p251
sS'pid'
p252
S'0x8041'
p253
sS'extra_flags'
p254
S'{build.usb_flags}'
p255
sS'board'
p256
S'AVR_YUN'
p257
sS'mcu'
p258
S'atmega32u4'
p259
sS'variant'
p260
S'yun'
p261
ssg150
S'/usr/local/share/arduino/hardware/arduino/avr'
p262
sS'bootloader'
p263
(dp264
S'extended_fuses'
p265
S'0xfb'
p266
sS'high_fuses'
p267
S'0xd8'
p268
sS'low_fuses'
p269
S'0xff'
p270
sS'lock_bits'
p271
S'0x2F'
p272
sS'tool'
p273
S'avrdude'
p274
sS'file'
p275
S'caterina/Caterina-Yun.hex'
p276
sS'unlock_bits'
p277
S'0x3F'
p278
ssaa(lp279
S'uno'
p280
a(dp281
S'name'
p282
S'Arduino Uno'
p283
sS'vid'
p284
(dp285
g215
S'0x2341'
p286
sg107
S'0x2341'
p287
ssS'pid'
p288
(dp289
g215
S'0x0001'
p290
sg107
S'0x0043'
p291
ssS'upload'
p292
(dp293
S'speed'
p294
S'115200'
p295
sS'tool'
p296
S'avrdude'
p297
sS'protocol'
p298
S'arduino'
p299
sS'maximum_size'
p300
S'32256'
p301
sS'maximum_data_size'
p302
S'2048'
p303
ssS'build'
p304
(dp305
S'core'
p306
S'arduino'
p307
sS'mcu'
p308
S'atmega328p'
p309
sS'f_cpu'
p310
S'16000000L'
p311
sS'board'
p312
S'AVR_UNO'
p313
sS'variant'
p314
S'standard'
p315
ssg150
S'/usr/local/share/arduino/hardware/arduino/avr'
p316
sS'bootloader'
p317
(dp318
S'extended_fuses'
p319
S'0x05'
p320
sS'high_fuses'
p321
S'0xDE'
p322
sS'low_fuses'
p323
S'0xFF'
p324
sS'lock_bits'
p325
S'0x0F'
p326
sS'tool'
p327
S'avrdude'
p328
sS'file'
p329
S'optiboot/optiboot_atmega328.hex'
p330
sS'unlock_bits'
p331
S'0x3F'
p332
ssaa(lp333
S'diecimila'
p334
a(dp335
S'name'
p336
S'Arduino Duemilanove or Diecimila'
p337
sS'menu'
p338
(dp339
S'cpu'
p340
(dp341
S'atmega168'
p342
(dp343
S'bootloader'
p344
(dp345
S'extended_fuses'
p346
S'0x00'
p347
sS'high_fuses'
p348
S'0xdd'
p349
sS'file'
p350
S'atmega/ATmegaBOOT_168_diecimila.hex'
p351
ssS'upload'
p352
(dp353
S'maximum_size'
p354
S'14336'
p355
sS'speed'
p356
S'19200'
p357
sS'maximum_data_size'
p358
S'1024'
p359
ssS'_'
p360
S'ATmega168'
p361
sS'build'
p362
(dp363
S'mcu'
p364
S'atmega168'
p365
sssS'atmega328'
p366
(dp367
S'bootloader'
p368
(dp369
S'extended_fuses'
p370
S'0x05'
p371
sS'high_fuses'
p372
S'0xDA'
p373
sS'file'
p374
S'atmega/ATmegaBOOT_168_atmega328.hex'
p375
ssS'upload'
p376
(dp377
S'maximum_size'
p378
S'30720'
p379
sS'speed'
p380
S'57600'
p381
sS'maximum_data_size'
p382
S'2048'
p383
ssg360
S'ATmega328'
p384
sS'build'
p385
(dp386
S'mcu'
p387
S'atmega328p'
p388
sssssS'upload'
p389
(dp390
S'tool'
p391
S'avrdude'
p392
sS'protocol'
p393
S'arduino'
p394
ssS'build'
p395
(dp396
S'core'
p397
S'arduino'
p398
sS'f_cpu'
p399
S'16000000L'
p400
sS'board'
p401
S'AVR_DUEMILANOVE'
p402
sS'variant'
p403
S'standard'
p404
ssg150
S'/usr/local/share/arduino/hardware/arduino/avr'
p405
sS'bootloader'
p406
(dp407
S'low_fuses'
p408
S'0xFF'
p409
sS'lock_bits'
p410
S'0x0F'
p411
sS'tool'
p412
S'avrdude'
p413
sS'unlock_bits'
p414
S'0x3F'
p415
ssaa(lp416
S'nano'
p417
a(dp418
S'name'
p419
S'Arduino Nano'
p420
sS'menu'
p421
(dp422
S'cpu'
p423
(dp424
S'atmega168'
p425
(dp426
S'bootloader'
p427
(dp428
S'low_fuses'
p429
S'0xff'
p430
sS'extended_fuses'
p431
S'0x00'
p432
sS'high_fuses'
p433
S'0xdd'
p434
sS'file'
p435
S'atmega/ATmegaBOOT_168_diecimila.hex'
p436
ssS'upload'
p437
(dp438
S'maximum_size'
p439
S'14336'
p440
sS'speed'
p441
S'19200'
p442
sS'maximum_data_size'
p443
S'1024'
p444
ssg360
S'ATmega168'
p445
sS'build'
p446
(dp447
S'mcu'
p448
S'atmega168'
p449
sssS'atmega328'
p450
(dp451
S'bootloader'
p452
(dp453
S'low_fuses'
p454
S'0xFF'
p455
sS'extended_fuses'
p456
S'0x05'
p457
sS'high_fuses'
p458
S'0xDA'
p459
sS'file'
p460
S'atmega/ATmegaBOOT_168_atmega328.hex'
p461
ssS'upload'
p462
(dp463
S'maximum_size'
p464
S'30720'
p465
sS'speed'
p466
S'57600'
p467
sS'maximum_data_size'
p468
S'2048'
p469
ssg360
S'ATmega328'
p470
sS'build'
p471
(dp472
S'mcu'
p473
S'atmega328p'
p474
sssssS'upload'
p475
(dp476
S'tool'
p477
S'avrdude'
p478
sS'protocol'
p479
S'arduino'
p480
ssS'build'
p481
(dp482
S'core'
p483
S'arduino'
p484
sS'f_cpu'
p485
S'16000000L'
p486
sS'board'
p487
S'AVR_NANO'
p488
sS'variant'
p489
S'eightanaloginputs'
p490
ssg150
S'/usr/local/share/arduino/hardware/arduino/avr'
p491
sS'bootloader'
p492
(dp493
S'lock_bits'
p494
S'0x0F'
p495
sS'tool'
p496
S'avrdude'
p497
sS'unlock_bits'
p498
S'0x3F'
p499
ssaa(lp500
S'mega'
p501
a(dp502
S'name'
p503
S'Arduino Mega or Mega 2560'
p504
sS'vid'
p505
(dp506
g215
S'0x2341'
p507
sg107
S'0x2341'
p508
ssS'menu'
p509
(dp510
S'cpu'
p511
(dp512
S'atmega1280'
p513
(dp514
S'bootloader'
p515
(dp516
S'extended_fuses'
p517
S'0xF5'
p518
sS'high_fuses'
p519
S'0xDA'
p520
sS'file'
p521
S'atmega/ATmegaBOOT_168_atmega1280.hex'
p522
ssS'upload'
p523
(dp524
S'speed'
p525
S'57600'
p526
sS'maximum_size'
p527
S'126976'
p528
sS'protocol'
p529
S'arduino'
p530
ssg360
S'ATmega1280'
p531
sS'build'
p532
(dp533
S'mcu'
p534
S'atmega1280'
p535
sS'board'
p536
S'AVR_MEGA'
p537
sssS'atmega2560'
p538
(dp539
S'bootloader'
p540
(dp541
S'extended_fuses'
p542
S'0xFD'
p543
sS'high_fuses'
p544
S'0xD8'
p545
sS'file'
p546
S'stk500v2/stk500boot_v2_mega2560.hex'
p547
ssS'upload'
p548
(dp549
S'speed'
p550
S'115200'
p551
sS'maximum_size'
p552
S'253952'
p553
sS'protocol'
p554
S'wiring'
p555
ssg360
S'ATmega2560 (Mega 2560)'
p556
sS'build'
p557
(dp558
S'mcu'
p559
S'atmega2560'
p560
sS'board'
p561
S'AVR_MEGA2560'
p562
sssssS'pid'
p563
(dp564
g215
S'0x0042'
p565
sg107
S'0x0010'
p566
ssS'upload'
p567
(dp568
S'tool'
p569
S'avrdude'
p570
sS'maximum_data_size'
p571
S'8192'
p572
ssS'build'
p573
(dp574
S'core'
p575
S'arduino'
p576
sS'f_cpu'
p577
S'16000000L'
p578
sS'board'
p579
S'AVR_MEGA2560'
p580
sS'variant'
p581
S'mega'
p582
ssg150
S'/usr/local/share/arduino/hardware/arduino/avr'
p583
sS'bootloader'
p584
(dp585
S'low_fuses'
p586
S'0xFF'
p587
sS'lock_bits'
p588
S'0x0F'
p589
sS'tool'
p590
S'avrdude'
p591
sS'unlock_bits'
p592
S'0x3F'
p593
ssaa(lp594
S'megaADK'
p595
a(dp596
S'name'
p597
S'Arduino Mega ADK'
p598
sS'vid'
p599
(dp600
g215
S'0x2341'
p601
sg107
S'0x2341'
p602
ssS'pid'
p603
(dp604
g215
S'0x0044'
p605
sg107
S'0x003f'
p606
ssS'upload'
p607
(dp608
S'speed'
p609
S'115200'
p610
sS'tool'
p611
S'avrdude'
p612
sS'protocol'
p613
S'wiring'
p614
sS'maximum_size'
p615
S'253952'
p616
sS'maximum_data_size'
p617
S'8192'
p618
ssS'build'
p619
(dp620
S'core'
p621
S'arduino'
p622
sS'mcu'
p623
S'atmega2560'
p624
sS'f_cpu'
p625
S'16000000L'
p626
sS'board'
p627
S'AVR_ADK'
p628
sS'variant'
p629
S'mega'
p630
ssg150
S'/usr/local/share/arduino/hardware/arduino/avr'
p631
sS'bootloader'
p632
(dp633
S'extended_fuses'
p634
S'0xFD'
p635
sS'high_fuses'
p636
S'0xD8'
p637
sS'low_fuses'
p638
S'0xFF'
p639
sS'lock_bits'
p640
S'0x0F'
p641
sS'tool'
p642
S'avrdude'
p643
sS'file'
p644
S'stk500v2/stk500boot_v2_mega2560.hex'
p645
sS'unlock_bits'
p646
S'0x3F'
p647
ssaa(lp648
S'leonardo'
p649
a(dp650
S'name'
p651
S'Arduino Leonardo'
p652
sS'vid'
p653
(dp654
g215
S'0x2341'
p655
sg107
S'0x2341'
p656
ssS'pid'
p657
(dp658
g215
S'0x8036'
p659
sg107
S'0x0036'
p660
ssS'upload'
p661
(dp662
S'protocol'
p663
S'avr109'
p664
sS'disable_flushing'
p665
S'true'
p666
sS'tool'
p667
S'avrdude'
p668
sS'maximum_data_size'
p669
S'2560'
p670
sS'maximum_size'
p671
S'28672'
p672
sS'use_1200bps_touch'
p673
S'true'
p674
sS'speed'
p675
S'57600'
p676
sS'wait_for_upload_port'
p677
S'true'
p678
ssS'build'
p679
(dp680
S'core'
p681
S'arduino'
p682
sS'f_cpu'
p683
S'16000000L'
p684
sS'vid'
p685
S'0x2341'
p686
sS'usb_product'
p687
S'"Arduino Leonardo"'
p688
sS'pid'
p689
S'0x8036'
p690
sS'extra_flags'
p691
S'{build.usb_flags}'
p692
sS'board'
p693
S'AVR_LEONARDO'
p694
sS'mcu'
p695
S'atmega32u4'
p696
sS'variant'
p697
S'leonardo'
p698
ssg150
S'/usr/local/share/arduino/hardware/arduino/avr'
p699
sS'bootloader'
p700
(dp701
S'extended_fuses'
p702
S'0xcb'
p703
sS'high_fuses'
p704
S'0xd8'
p705
sS'low_fuses'
p706
S'0xff'
p707
sS'lock_bits'
p708
S'0x2F'
p709
sS'tool'
p710
S'avrdude'
p711
sS'file'
p712
S'caterina/Caterina-Leonardo.hex'
p713
sS'unlock_bits'
p714
S'0x3F'
p715
ssaa(lp716
S'micro'
p717
a(dp718
S'build'
p719
(dp720
S'core'
p721
S'arduino'
p722
sS'f_cpu'
p723
S'16000000L'
p724
sS'vid'
p725
S'0x2341'
p726
sS'usb_product'
p727
S'"Arduino Micro"'
p728
sS'pid'
p729
S'0x8037'
p730
sS'extra_flags'
p731
S'{build.usb_flags}'
p732
sS'board'
p733
S'AVR_MICRO'
p734
sS'mcu'
p735
S'atmega32u4'
p736
sS'variant'
p737
S'micro'
p738
ssS'bootloader'
p739
(dp740
S'extended_fuses'
p741
S'0xcb'
p742
sS'high_fuses'
p743
S'0xd8'
p744
sS'low_fuses'
p745
S'0xff'
p746
sS'lock_bits'
p747
S'0x2F'
p748
sS'tool'
p749
S'avrdude'
p750
sS'file'
p751
S'caterina/Caterina-Micro.hex'
p752
sS'unlock_bits'
p753
S'0x3F'
p754
ssS'upload'
p755
(dp756
S'protocol'
p757
S'avr109'
p758
sS'disable_flushing'
p759
S'true'
p760
sS'tool'
p761
S'avrdude'
p762
sS'maximum_data_size'
p763
S'2560'
p764
sS'maximum_size'
p765
S'28672'
p766
sS'use_1200bps_touch'
p767
S'true'
p768
sS'speed'
p769
S'57600'
p770
sS'wait_for_upload_port'
p771
S'true'
p772
ssS'name'
p773
S'Arduino Micro'
p774
sg150
S'/usr/local/share/arduino/hardware/arduino/avr'
p775
saa(lp776
S'esplora'
p777
a(dp778
S'name'
p779
S'Arduino Esplora'
p780
sS'vid'
p781
(dp782
g215
S'0x2341'
p783
sg107
S'0x2341'
p784
ssS'pid'
p785
(dp786
g215
S'0x803c'
p787
sg107
S'0x003c'
p788
ssS'upload'
p789
(dp790
S'protocol'
p791
S'avr109'
p792
sS'disable_flushing'
p793
S'true'
p794
sS'tool'
p795
S'avrdude'
p796
sS'maximum_data_size'
p797
S'2560'
p798
sS'maximum_size'
p799
S'28672'
p800
sS'use_1200bps_touch'
p801
S'true'
p802
sS'speed'
p803
S'57600'
p804
sS'wait_for_upload_port'
p805
S'true'
p806
ssS'build'
p807
(dp808
S'core'
p809
S'arduino'
p810
sS'f_cpu'
p811
S'16000000L'
p812
sS'vid'
p813
S'0x2341'
p814
sS'usb_product'
p815
S'"Arduino Esplora"'
p816
sS'pid'
p817
S'0x803c'
p818
sS'extra_flags'
p819
S'{build.usb_flags}'
p820
sS'board'
p821
S'AVR_ESPLORA'
p822
sS'mcu'
p823
S'atmega32u4'
p824
sS'variant'
p825
S'leonardo'
p826
ssg150
S'/usr/local/share/arduino/hardware/arduino/avr'
p827
sS'bootloader'
p828
(dp829
S'extended_fuses'
p830
S'0xcb'
p831
sS'high_fuses'
p832
S'0xd8'
p833
sS'low_fuses'
p834
S'0xff'
p835
sS'lock_bits'
p836
S'0x2F'
p837
sS'tool'
p838
S'avrdude'
p839
sS'file'
p840
S'caterina/Caterina-Esplora.hex'
p841
sS'unlock_bits'
p842
S'0x3F'
p843
ssaa(lp844
S'mini'
p845
a(dp846
S'name'
p847
S'Arduino Mini'
p848
sS'menu'
p849
(dp850
S'cpu'
p851
(dp852
S'atmega168'
p853
(dp854
S'bootloader'
p855
(dp856
S'extended_fuses'
p857
S'0x00'
p858
sS'high_fuses'
p859
S'0xdd'
p860
sS'file'
p861
S'atmega/ATmegaBOOT_168_ng.hex'
p862
ssS'upload'
p863
(dp864
S'maximum_size'
p865
S'14336'
p866
sS'speed'
p867
S'19200'
p868
sS'maximum_data_size'
p869
S'1024'
p870
ssg360
S'ATmega168'
p871
sS'build'
p872
(dp873
S'mcu'
p874
S'atmega168'
p875
sssS'atmega328'
p876
(dp877
S'bootloader'
p878
(dp879
S'extended_fuses'
p880
S'0x05'
p881
sS'high_fuses'
p882
S'0xd8'
p883
sS'file'
p884
S'optiboot/optiboot_atmega328-Mini.hex'
p885
ssS'upload'
p886
(dp887
S'maximum_size'
p888
S'28672'
p889
sS'speed'
p890
S'115200'
p891
sS'maximum_data_size'
p892
S'2048'
p893
ssg360
S'ATmega328'
p894
sS'build'
p895
(dp896
S'mcu'
p897
S'atmega328p'
p898
sssssS'upload'
p899
(dp900
S'tool'
p901
S'avrdude'
p902
sS'protocol'
p903
S'arduino'
p904
ssS'build'
p905
(dp906
S'core'
p907
S'arduino'
p908
sS'f_cpu'
p909
S'16000000L'
p910
sS'board'
p911
S'AVR_MINI'
p912
sS'variant'
p913
S'eightanaloginputs'
p914
ssg150
S'/usr/local/share/arduino/hardware/arduino/avr'
p915
sS'bootloader'
p916
(dp917
S'low_fuses'
p918
S'0xff'
p919
sS'lock_bits'
p920
S'0x0F'
p921
sS'tool'
p922
S'avrdude'
p923
sS'unlock_bits'
p924
S'0x3F'
p925
ssaa(lp926
S'ethernet'
p927
a(dp928
S'build'
p929
(dp930
S'f_cpu'
p931
S'16000000L'
p932
sS'mcu'
p933
S'atmega328p'
p934
sS'variant'
p935
S'ethernet'
p936
sS'board'
p937
S'AVR_ETHERNET'
p938
sS'core'
p939
S'arduino'
p940
ssS'bootloader'
p941
(dp942
S'extended_fuses'
p943
S'0x05'
p944
sS'high_fuses'
p945
S'0xde'
p946
sS'low_fuses'
p947
S'0xff'
p948
sS'lock_bits'
p949
S'0x0F'
p950
sS'tool'
p951
S'avrdude'
p952
sS'file'
p953
S'optiboot/optiboot_atmega328.hex'
p954
sS'unlock_bits'
p955
S'0x3F'
p956
ssS'upload'
p957
(dp958
S'speed'
p959
S'115200'
p960
sS'tool'
p961
S'avrdude'
p962
sS'protocol'
p963
S'arduino'
p964
sS'maximum_size'
p965
S'32256'
p966
sS'maximum_data_size'
p967
S'2048'
p968
ssS'name'
p969
S'Arduino Ethernet'
p970
sg150
S'/usr/local/share/arduino/hardware/arduino/avr'
p971
saa(lp972
S'fio'
p973
a(dp974
S'build'
p975
(dp976
S'core'
p977
S'arduino'
p978
sS'mcu'
p979
S'atmega328p'
p980
sS'f_cpu'
p981
S'8000000L'
p982
sS'board'
p983
S'AVR_FIO'
p984
sS'variant'
p985
S'eightanaloginputs'
p986
ssS'bootloader'
p987
(dp988
S'extended_fuses'
p989
S'0x05'
p990
sS'high_fuses'
p991
S'0xDA'
p992
sS'low_fuses'
p993
S'0xFF'
p994
sS'lock_bits'
p995
S'0x0F'
p996
sS'tool'
p997
S'avrdude'
p998
sS'file'
p999
S'atmega/ATmegaBOOT_168_atmega328_pro_8MHz.hex'
p1000
sS'unlock_bits'
p1001
S'0x3F'
p1002
ssS'upload'
p1003
(dp1004
S'speed'
p1005
S'57600'
p1006
sS'tool'
p1007
S'avrdude'
p1008
sS'protocol'
p1009
S'arduino'
p1010
sS'maximum_size'
p1011
S'30720'
p1012
sS'maximum_data_size'
p1013
S'2048'
p1014
ssS'name'
p1015
S'Arduino Fio'
p1016
sg150
S'/usr/local/share/arduino/hardware/arduino/avr'
p1017
saa(lp1018
S'bt'
p1019
a(dp1020
S'name'
p1021
S'Arduino BT'
p1022
sS'menu'
p1023
(dp1024
S'cpu'
p1025
(dp1026
S'atmega168'
p1027
(dp1028
S'bootloader'
p1029
(dp1030
S'extended_fuses'
p1031
S'0x00'
p1032
sS'high_fuses'
p1033
S'0xdd'
p1034
sS'file'
p1035
S'bt/ATmegaBOOT_168.hex'
p1036
ssS'upload'
p1037
(dp1038
S'maximum_size'
p1039
S'14336'
p1040
sS'maximum_data_size'
p1041
S'1024'
p1042
ssg360
S'ATmega168'
p1043
sS'build'
p1044
(dp1045
S'mcu'
p1046
S'atmega168'
p1047
sssS'atmega328'
p1048
(dp1049
S'bootloader'
p1050
(dp1051
S'extended_fuses'
p1052
S'0x05'
p1053
sS'high_fuses'
p1054
S'0xd8'
p1055
sS'file'
p1056
S'bt/ATmegaBOOT_168_atmega328_bt.hex'
p1057
ssS'upload'
p1058
(dp1059
S'maximum_size'
p1060
S'28672'
p1061
sS'maximum_data_size'
p1062
S'2048'
p1063
ssg360
S'ATmega328'
p1064
sS'build'
p1065
(dp1066
S'mcu'
p1067
S'atmega328p'
p1068
sssssS'upload'
p1069
(dp1070
S'speed'
p1071
S'19200'
p1072
sS'tool'
p1073
S'avrdude'
p1074
sS'protocol'
p1075
S'arduino'
p1076
sS'disable_flushing'
p1077
S'true'
p1078
ssS'build'
p1079
(dp1080
S'core'
p1081
S'arduino'
p1082
sS'f_cpu'
p1083
S'16000000L'
p1084
sS'board'
p1085
S'AVR_BT'
p1086
sS'variant'
p1087
S'eightanaloginputs'
p1088
ssg150
S'/usr/local/share/arduino/hardware/arduino/avr'
p1089
sS'bootloader'
p1090
(dp1091
S'low_fuses'
p1092
S'0xff'
p1093
sS'lock_bits'
p1094
S'0x0F'
p1095
sS'tool'
p1096
S'avrdude'
p1097
sS'unlock_bits'
p1098
S'0x3F'
p1099
ssaa(lp1100
S'LilyPadUSB'
p1101
a(dp1102
S'build'
p1103
(dp1104
S'core'
p1105
S'arduino'
p1106
sS'f_cpu'
p1107
S'8000000L'
p1108
sS'vid'
p1109
S'0x1B4F'
p1110
sS'usb_product'
p1111
S'"LilyPad USB"'
p1112
sS'pid'
p1113
S'0x9208'
p1114
sS'extra_flags'
p1115
S'{build.usb_flags}'
p1116
sS'board'
p1117
S'AVR_LILYPAD_USB'
p1118
sS'mcu'
p1119
S'atmega32u4'
p1120
sS'variant'
p1121
S'leonardo'
p1122
ssS'bootloader'
p1123
(dp1124
S'extended_fuses'
p1125
S'0xce'
p1126
sS'high_fuses'
p1127
S'0xd8'
p1128
sS'low_fuses'
p1129
S'0xff'
p1130
sS'lock_bits'
p1131
S'0x2F'
p1132
sS'tool'
p1133
S'avrdude'
p1134
sS'file'
p1135
S'caterina-LilyPadUSB/Caterina-LilyPadUSB.hex'
p1136
sS'unlock_bits'
p1137
S'0x3F'
p1138
ssS'upload'
p1139
(dp1140
S'protocol'
p1141
S'avr109'
p1142
sS'disable_flushing'
p1143
S'true'
p1144
sS'tool'
p1145
S'avrdude'
p1146
sS'maximum_data_size'
p1147
S'2560'
p1148
sS'maximum_size'
p1149
S'28672'
p1150
sS'use_1200bps_touch'
p1151
S'true'
p1152
sS'speed'
p1153
S'57600'
p1154
sS'wait_for_upload_port'
p1155
S'true'
p1156
ssS'name'
p1157
S'LilyPad Arduino USB'
p1158
sg150
S'/usr/local/share/arduino/hardware/arduino/avr'
p1159
saa(lp1160
S'lilypad'
p1161
a(dp1162
S'name'
p1163
S'LilyPad Arduino'
p1164
sS'menu'
p1165
(dp1166
S'cpu'
p1167
(dp1168
S'atmega168'
p1169
(dp1170
S'bootloader'
p1171
(dp1172
S'low_fuses'
p1173
S'0xe2'
p1174
sS'extended_fuses'
p1175
S'0x00'
p1176
sS'high_fuses'
p1177
S'0xdd'
p1178
sS'file'
p1179
S'lilypad/LilyPadBOOT_168.hex'
p1180
ssS'upload'
p1181
(dp1182
S'maximum_size'
p1183
S'14336'
p1184
sS'speed'
p1185
S'19200'
p1186
sS'maximum_data_size'
p1187
S'1024'
p1188
ssg360
S'ATmega168'
p1189
sS'build'
p1190
(dp1191
S'mcu'
p1192
S'atmega168'
p1193
sssS'atmega328'
p1194
(dp1195
S'bootloader'
p1196
(dp1197
S'low_fuses'
p1198
S'0xFF'
p1199
sS'extended_fuses'
p1200
S'0x05'
p1201
sS'high_fuses'
p1202
S'0xDA'
p1203
sS'file'
p1204
S'atmega/ATmegaBOOT_168_atmega328_pro_8MHz.hex'
p1205
ssS'upload'
p1206
(dp1207
S'maximum_size'
p1208
S'30720'
p1209
sS'speed'
p1210
S'57600'
p1211
sS'maximum_data_size'
p1212
S'2048'
p1213
ssg360
S'ATmega328'
p1214
sS'build'
p1215
(dp1216
S'mcu'
p1217
S'atmega328p'
p1218
sssssS'upload'
p1219
(dp1220
S'tool'
p1221
S'avrdude'
p1222
sS'protocol'
p1223
S'arduino'
p1224
ssS'build'
p1225
(dp1226
S'core'
p1227
S'arduino'
p1228
sS'f_cpu'
p1229
S'8000000L'
p1230
sS'board'
p1231
S'AVR_LILYPAD'
p1232
sS'variant'
p1233
S'standard'
p1234
ssg150
S'/usr/local/share/arduino/hardware/arduino/avr'
p1235
sS'bootloader'
p1236
(dp1237
S'lock_bits'
p1238
S'0x0F'
p1239
sS'tool'
p1240
S'avrdude'
p1241
sS'unlock_bits'
p1242
S'0x3F'
p1243
ssaa(lp1244
S'pro'
p1245
a(dp1246
S'name'
p1247
S'Arduino Pro or Pro Mini'
p1248
sS'menu'
p1249
(dp1250
S'cpu'
p1251
(dp1252
S'16MHzatmega328'
p1253
(dp1254
S'bootloader'
p1255
(dp1256
S'low_fuses'
p1257
S'0xFF'
p1258
sS'extended_fuses'
p1259
S'0x05'
p1260
sS'high_fuses'
p1261
S'0xDA'
p1262
sS'file'
p1263
S'atmega/ATmegaBOOT_168_atmega328.hex'
p1264
ssS'upload'
p1265
(dp1266
S'maximum_size'
p1267
S'30720'
p1268
sS'speed'
p1269
S'57600'
p1270
sS'maximum_data_size'
p1271
S'2048'
p1272
ssg360
S'ATmega328 (5V, 16 MHz)'
p1273
sS'build'
p1274
(dp1275
S'mcu'
p1276
S'atmega328p'
p1277
sS'f_cpu'
p1278
S'16000000L'
p1279
sssS'8MHzatmega328'
p1280
(dp1281
S'bootloader'
p1282
(dp1283
S'low_fuses'
p1284
S'0xFF'
p1285
sS'extended_fuses'
p1286
S'0x05'
p1287
sS'high_fuses'
p1288
S'0xDA'
p1289
sS'file'
p1290
S'atmega/ATmegaBOOT_168_atmega328_pro_8MHz.hex'
p1291
ssS'upload'
p1292
(dp1293
S'maximum_size'
p1294
S'30720'
p1295
sS'speed'
p1296
S'57600'
p1297
sS'maximum_data_size'
p1298
S'2048'
p1299
ssg360
S'ATmega328 (3.3V, 8 MHz)'
p1300
sS'build'
p1301
(dp1302
S'mcu'
p1303
S'atmega328p'
p1304
sS'f_cpu'
p1305
S'8000000L'
p1306
sssS'8MHzatmega168'
p1307
(dp1308
S'bootloader'
p1309
(dp1310
S'low_fuses'
p1311
S'0xc6'
p1312
sS'extended_fuses'
p1313
S'0x00'
p1314
sS'high_fuses'
p1315
S'0xdd'
p1316
sS'file'
p1317
S'atmega/ATmegaBOOT_168_pro_8MHz.hex'
p1318
ssS'upload'
p1319
(dp1320
S'maximum_size'
p1321
S'14336'
p1322
sS'speed'
p1323
S'19200'
p1324
sS'maximum_data_size'
p1325
S'1024'
p1326
ssg360
S'ATmega168 (3.3V, 8 MHz)'
p1327
sS'build'
p1328
(dp1329
S'mcu'
p1330
S'atmega168'
p1331
sS'f_cpu'
p1332
S'8000000L'
p1333
sssS'16MHzatmega168'
p1334
(dp1335
S'bootloader'
p1336
(dp1337
S'low_fuses'
p1338
S'0xff'
p1339
sS'extended_fuses'
p1340
S'0x00'
p1341
sS'high_fuses'
p1342
S'0xdd'
p1343
sS'file'
p1344
S'atmega/ATmegaBOOT_168_diecimila.hex'
p1345
ssS'upload'
p1346
(dp1347
S'maximum_size'
p1348
S'14336'
p1349
sS'speed'
p1350
S'19200'
p1351
sS'maximum_data_size'
p1352
S'1024'
p1353
ssg360
S'ATmega168 (5V, 16 MHz)'
p1354
sS'build'
p1355
(dp1356
S'mcu'
p1357
S'atmega168'
p1358
sS'f_cpu'
p1359
S'16000000L'
p1360
sssssS'upload'
p1361
(dp1362
S'tool'
p1363
S'avrdude'
p1364
sS'protocol'
p1365
S'arduino'
p1366
ssS'build'
p1367
(dp1368
S'core'
p1369
S'arduino'
p1370
sS'variant'
p1371
S'eightanaloginputs'
p1372
sS'board'
p1373
S'AVR_PRO'
p1374
ssg150
S'/usr/local/share/arduino/hardware/arduino/avr'
p1375
sS'bootloader'
p1376
(dp1377
S'lock_bits'
p1378
S'0x0F'
p1379
sS'tool'
p1380
S'avrdude'
p1381
sS'unlock_bits'
p1382
S'0x3F'
p1383
ssaa(lp1384
S'atmegang'
p1385
a(dp1386
S'name'
p1387
S'Arduino NG or older'
p1388
sS'menu'
p1389
(dp1390
S'cpu'
p1391
(dp1392
S'atmega168'
p1393
(dp1394
S'bootloader'
p1395
(dp1396
S'low_fuses'
p1397
S'0xff'
p1398
sS'extended_fuses'
p1399
S'0x00'
p1400
sS'high_fuses'
p1401
S'0xdd'
p1402
sS'file'
p1403
S'atmega/ATmegaBOOT_168_ng.hex'
p1404
ssS'upload'
p1405
(dp1406
S'maximum_size'
p1407
S'14336'
p1408
sS'maximum_data_size'
p1409
S'1024'
p1410
ssg360
S'ATmega168'
p1411
sS'build'
p1412
(dp1413
S'mcu'
p1414
S'atmega168'
p1415
sssS'atmega8'
p1416
(dp1417
S'bootloader'
p1418
(dp1419
S'low_fuses'
p1420
S'0xdf'
p1421
sS'high_fuses'
p1422
S'0xca'
p1423
sS'file'
p1424
S'atmega8/ATmegaBOOT-prod-firmware-2009-11-07.hex'
p1425
ssS'upload'
p1426
(dp1427
S'maximum_size'
p1428
S'7168'
p1429
sS'maximum_data_size'
p1430
S'1024'
p1431
ssg360
S'ATmega8'
p1432
sS'build'
p1433
(dp1434
S'mcu'
p1435
S'atmega8'
p1436
sssssS'upload'
p1437
(dp1438
S'speed'
p1439
S'19200'
p1440
sS'tool'
p1441
S'avrdude'
p1442
sS'protocol'
p1443
S'arduino'
p1444
ssS'build'
p1445
(dp1446
S'core'
p1447
S'arduino'
p1448
sS'mcu'
p1449
S'atmegang'
p1450
sS'f_cpu'
p1451
S'16000000L'
p1452
sS'board'
p1453
S'AVR_NG'
p1454
sS'variant'
p1455
S'standard'
p1456
ssg150
S'/usr/local/share/arduino/hardware/arduino/avr'
p1457
sS'bootloader'
p1458
(dp1459
S'lock_bits'
p1460
S'0x0F'
p1461
sS'tool'
p1462
S'avrdude'
p1463
sS'unlock_bits'
p1464
S'0x3F'
p1465
ssaa(lp1466
S'robotControl'
p1467
a(dp1468
S'build'
p1469
(dp1470
S'core'
p1471
S'arduino'
p1472
sS'f_cpu'
p1473
S'16000000L'
p1474
sS'vid'
p1475
S'0x2341'
p1476
sS'usb_product'
p1477
S'"Robot Control"'
p1478
sS'pid'
p1479
S'0x8038'
p1480
sS'extra_flags'
p1481
S'{build.usb_flags}'
p1482
sS'board'
p1483
S'AVR_ROBOT_CONTROL'
p1484
sS'mcu'
p1485
S'atmega32u4'
p1486
sS'variant'
p1487
S'robot_control'
p1488
ssS'bootloader'
p1489
(dp1490
S'extended_fuses'
p1491
S'0xcb'
p1492
sS'high_fuses'
p1493
S'0xd8'
p1494
sS'low_fuses'
p1495
S'0xff'
p1496
sS'lock_bits'
p1497
S'0x2F'
p1498
sS'tool'
p1499
S'avrdude'
p1500
sS'file'
p1501
S'caterina-Arduino_Robot/Caterina-Robot-Control.hex'
p1502
sS'unlock_bits'
p1503
S'0x3F'
p1504
ssS'upload'
p1505
(dp1506
S'protocol'
p1507
S'avr109'
p1508
sS'disable_flushing'
p1509
S'true'
p1510
sS'tool'
p1511
S'avrdude'
p1512
sS'maximum_data_size'
p1513
S'2560'
p1514
sS'maximum_size'
p1515
S'28672'
p1516
sS'use_1200bps_touch'
p1517
S'true'
p1518
sS'speed'
p1519
S'57600'
p1520
sS'wait_for_upload_port'
p1521
S'true'
p1522
ssS'name'
p1523
S'Arduino Robot Control'
p1524
sg150
S'/usr/local/share/arduino/hardware/arduino/avr'
p1525
saa(lp1526
S'robotMotor'
p1527
a(dp1528
S'build'
p1529
(dp1530
S'core'
p1531
S'arduino'
p1532
sS'f_cpu'
p1533
S'16000000L'
p1534
sS'vid'
p1535
S'0x2341'
p1536
sS'usb_product'
p1537
S'"Robot Motor"'
p1538
sS'pid'
p1539
S'0x8039'
p1540
sS'extra_flags'
p1541
S'{build.usb_flags}'
p1542
sS'board'
p1543
S'AVR_ROBOT_MOTOR'
p1544
sS'mcu'
p1545
S'atmega32u4'
p1546
sS'variant'
p1547
S'robot_motor'
p1548
ssS'bootloader'
p1549
(dp1550
S'extended_fuses'
p1551
S'0xcb'
p1552
sS'high_fuses'
p1553
S'0xd8'
p1554
sS'low_fuses'
p1555
S'0xff'
p1556
sS'lock_bits'
p1557
S'0x2F'
p1558
sS'tool'
p1559
S'avrdude'
p1560
sS'file'
p1561
S'caterina-Arduino_Robot/Caterina-Robot-Motor.hex'
p1562
sS'unlock_bits'
p1563
S'0x3F'
p1564
ssS'upload'
p1565
(dp1566
S'protocol'
p1567
S'avr109'
p1568
sS'disable_flushing'
p1569
S'true'
p1570
sS'tool'
p1571
S'avrdude'
p1572
sS'maximum_data_size'
p1573
S'2560'
p1574
sS'maximum_size'
p1575
S'28672'
p1576
sS'use_1200bps_touch'
p1577
S'true'
p1578
sS'speed'
p1579
S'57600'
p1580
sS'wait_for_upload_port'
p1581
S'true'
p1582
ssS'name'
p1583
S'Arduino Robot Motor'
p1584
sg150
S'/usr/local/share/arduino/hardware/arduino/avr'
p1585
saatp1586
Rp1587
(dp1588
S'default'
p1589
S'uno'
p1590
sbtp1591
a(S'cxx'
p1592
S'/usr/local/share/arduino/hardware/tools/avr/bin/avr-g++'
p1593
tp1594
a.