(lp0
(S'cppflags'
p1
ccopy_reg
_reconstructor
p2
(cino.utils
SpaceList
p3
c__builtin__
list
p4
(lp5
S'-mmcu=atmega328p'
p6
aS'-DF_CPU=16000000L'
p7
aS'-DARDUINO=160'
p8
aS'-I/usr/local/share/arduino/hardware/arduino/avr/cores/arduino'
p9
aS'-ffunction-sections'
p10
aS'-fdata-sections'
p11
aS'-g'
p12
aS'-Os'
p13
aS'-w'
p14
aS'-I/usr/local/share/arduino/hardware/arduino/avr/variants/standard'
p15
aS'-Ilib/Ethernet'
p16
aS'-Ilib/Ethernet/utility'
p17
aS'-Ilib/SPI'
p18
aS'-I/usr/local/share/arduino/hardware/arduino/avr/cores/arduino'
p19
atp20
Rp21
tp22
a(S'version.txt'
p23
S'/usr/local/share/arduino/lib/version.txt'
p24
tp25
a(S'used_libs'
p26
(lp27
S'lib/Ethernet'
p28
aS'lib/SPI'
p29
aS'/usr/local/share/arduino/hardware/arduino/avr/cores/arduino'
p30
atp31
a(S'cc'
p32
S'/usr/local/share/arduino/hardware/tools/avr/bin/avr-gcc'
p33
tp34
a(S'make'
p35
S'/usr/bin/make'
p36
tp37
a(S'build_dir'
p38
S'.build/uno'
p39
tp40
a(S'arduino_core_dir'
p41
g30
tp42
a(S'boards.txt'
p43
(lp44
S'/usr/local/share/arduino/hardware/arduino/sam/boards.txt'
p45
aS'/usr/local/share/arduino/hardware/arduino/avr/boards.txt'
p46
atp47
a(S'cxxflags'
p48
g2
(g3
g4
(lp49
S'-fno-exceptions'
p50
atp51
Rp52
tp53
a(S'arduino_variants_dir'
p54
S'/usr/local/share/arduino/hardware/arduino/avr/variants'
p55
tp56
a(S'deps'
p57
g2
(g3
g4
(lp58
S'.build/uno/src/dependencies.d'
p59
aS'.build/uno/SPI/dependencies.d'
p60
aS'.build/uno/Ethernet/dependencies.d'
p61
aS'.build/uno/arduino/dependencies.d'
p62
atp63
Rp64
tp65
a(S'ar'
p66
S'/usr/local/share/arduino/hardware/tools/avr/bin/avr-ar'
p67
tp68
a(S'names'
p69
(dp70
S'cpp'
p71
S'%s.cpp'
p72
sS'obj'
p73
S'%s.o'
p74
sg57
S'%s.d'
p75
sS'lib'
p76
S'lib%s.a'
p77
stp78
a(S'cflags'
p79
g2
(g3
g4
(lp80
tp81
Rp82
tp83
a(S'ldflags'
p84
g2
(g3
g4
(lp85
g6
aS'-Wl,-Os'
p86
aS'-Wl,--gc-sections'
p87
atp88
Rp89
tp90
a(S'arduino_libraries_dir'
p91
S'/usr/local/share/arduino/libraries'
p92
tp93
a(S'arduino_lib_version'
p94
g2
(cino.environment
Version
p95
c__builtin__
tuple
p96
(I1
I6
I0
tp97
tp98
Rp99
tp100
a(S'objcopy'
p101
S'/usr/local/share/arduino/hardware/tools/avr/bin/avr-objcopy'
p102
tp103
a(S'board_models'
p104
cino.environment
BoardModels
p105
((lp106
(lp107
S'arduino_due_x_dbg'
p108
a(dp109
S'name'
p110
S'Arduino Due (Programming Port)'
p111
sS'vid'
p112
(dp113
S'0'
p114
S'0x2341'
p115
ssS'pid'
p116
(dp117
g114
S'0x003d'
p118
ssS'upload'
p119
(dp120
S'protocol'
p121
S'sam-ba'
p122
sS'wait_for_upload_port'
p123
S'false'
p124
sS'tool'
p125
S'bossac'
p126
sS'native_usb'
p127
S'false'
p128
sS'maximum_size'
p129
S'524288'
p130
sS'use_1200bps_touch'
p131
S'true'
p132
ssS'build'
p133
(dp134
S'core'
p135
S'arduino'
p136
sS'f_cpu'
p137
S'84000000L'
p138
sS'vid'
p139
S'0x2341'
p140
sS'usb_product'
p141
S'"Arduino Due"'
p142
sS'pid'
p143
S'0x003e'
p144
sS'variant'
p145
S'arduino_due_x'
p146
sS'extra_flags'
p147
S'-D__SAM3X8E__ -mthumb {build.usb_flags}'
p148
sS'variant_system_lib'
p149
S'libsam_sam3x8e_gcc_rel.a'
p150
sS'board'
p151
S'SAM_DUE'
p152
sS'ldscript'
p153
S'linker_scripts/gcc/flash.ld'
p154
sS'mcu'
p155
S'cortex-m3'
p156
ssS'_coredir'
p157
S'/usr/local/share/arduino/hardware/arduino/sam'
p158
saa(lp159
S'arduino_due_x'
p160
a(dp161
S'name'
p162
S'Arduino Due (Native USB Port)'
p163
sS'vid'
p164
(dp165
g114
S'0x2341'
p166
ssS'pid'
p167
(dp168
g114
S'0x003e'
p169
ssS'upload'
p170
(dp171
S'protocol'
p172
S'sam-ba'
p173
sS'wait_for_upload_port'
p174
S'true'
p175
sS'tool'
p176
S'bossac'
p177
sS'native_usb'
p178
S'true'
p179
sS'maximum_size'
p180
S'524288'
p181
sS'use_1200bps_touch'
p182
S'true'
p183
ssS'build'
p184
(dp185
S'core'
p186
S'arduino'
p187
sS'f_cpu'
p188
S'84000000L'
p189
sS'vid'
p190
S'0x2341'
p191
sS'usb_product'
p192
S'"Arduino Due"'
p193
sS'pid'
p194
S'0x003e'
p195
sS'variant'
p196
S'arduino_due_x'
p197
sS'extra_flags'
p198
S'-D__SAM3X8E__ -mthumb {build.usb_flags}'
p199
sS'variant_system_lib'
p200
S'libsam_sam3x8e_gcc_rel.a'
p201
sS'board'
p202
S'SAM_DUE'
p203
sS'ldscript'
p204
S'linker_scripts/gcc/flash.ld'
p205
sS'mcu'
p206
S'cortex-m3'
p207
ssg157
S'/usr/local/share/arduino/hardware/arduino/sam'
p208
saa(lp209
S'menu'
p210
a(dp211
S'cpu'
p212
S'Processor'
p213
sg157
S'/usr/local/share/arduino/hardware/arduino/avr'
p214
saa(lp215
S'yun'
p216
a(dp217
S'name'
p218
S'Arduino Y\xc3\xban'
p219
sS'vid'
p220
(dp221
S'1'
p222
S'0x2341'
p223
sg114
S'0x2341'
p224
ssS'pid'
p225
(dp226
g222
S'0x8041'
p227
sg114
S'0x0041'
p228
ssS'upload'
p229
(dp230
S'protocol'
p231
S'avr109'
p232
sS'disable_flushing'
p233
S'true'
p234
sS'tool'
p235
S'avrdude'
p236
sS'maximum_data_size'
p237
S'2560'
p238
sS'via_ssh'
p239
S'true'
p240
sS'maximum_size'
p241
S'28672'
p242
sS'use_1200bps_touch'
p243
S'true'
p244
sS'speed'
p245
S'57600'
p246
sS'wait_for_upload_port'
p247
S'true'
p248
ssS'build'
p249
(dp250
S'core'
p251
S'arduino'
p252
sS'f_cpu'
p253
S'16000000L'
p254
sS'vid'
p255
S'0x2341'
p256
sS'usb_product'
p257
S'"Arduino Yun"'
p258
sS'pid'
p259
S'0x8041'
p260
sS'extra_flags'
p261
S'{build.usb_flags}'
p262
sS'board'
p263
S'AVR_YUN'
p264
sS'mcu'
p265
S'atmega32u4'
p266
sS'variant'
p267
S'yun'
p268
ssg157
S'/usr/local/share/arduino/hardware/arduino/avr'
p269
sS'bootloader'
p270
(dp271
S'extended_fuses'
p272
S'0xfb'
p273
sS'high_fuses'
p274
S'0xd8'
p275
sS'low_fuses'
p276
S'0xff'
p277
sS'lock_bits'
p278
S'0x2F'
p279
sS'tool'
p280
S'avrdude'
p281
sS'file'
p282
S'caterina/Caterina-Yun.hex'
p283
sS'unlock_bits'
p284
S'0x3F'
p285
ssaa(lp286
S'uno'
p287
a(dp288
S'name'
p289
S'Arduino Uno'
p290
sS'vid'
p291
(dp292
g222
S'0x2341'
p293
sg114
S'0x2341'
p294
ssS'pid'
p295
(dp296
g222
S'0x0001'
p297
sg114
S'0x0043'
p298
ssS'upload'
p299
(dp300
S'speed'
p301
S'115200'
p302
sS'tool'
p303
S'avrdude'
p304
sS'protocol'
p305
S'arduino'
p306
sS'maximum_size'
p307
S'32256'
p308
sS'maximum_data_size'
p309
S'2048'
p310
ssS'build'
p311
(dp312
S'core'
p313
S'arduino'
p314
sS'mcu'
p315
S'atmega328p'
p316
sS'f_cpu'
p317
S'16000000L'
p318
sS'board'
p319
S'AVR_UNO'
p320
sS'variant'
p321
S'standard'
p322
ssg157
S'/usr/local/share/arduino/hardware/arduino/avr'
p323
sS'bootloader'
p324
(dp325
S'extended_fuses'
p326
S'0x05'
p327
sS'high_fuses'
p328
S'0xDE'
p329
sS'low_fuses'
p330
S'0xFF'
p331
sS'lock_bits'
p332
S'0x0F'
p333
sS'tool'
p334
S'avrdude'
p335
sS'file'
p336
S'optiboot/optiboot_atmega328.hex'
p337
sS'unlock_bits'
p338
S'0x3F'
p339
ssaa(lp340
S'diecimila'
p341
a(dp342
S'name'
p343
S'Arduino Duemilanove or Diecimila'
p344
sS'menu'
p345
(dp346
S'cpu'
p347
(dp348
S'atmega168'
p349
(dp350
S'bootloader'
p351
(dp352
S'extended_fuses'
p353
S'0x00'
p354
sS'high_fuses'
p355
S'0xdd'
p356
sS'file'
p357
S'atmega/ATmegaBOOT_168_diecimila.hex'
p358
ssS'upload'
p359
(dp360
S'maximum_size'
p361
S'14336'
p362
sS'speed'
p363
S'19200'
p364
sS'maximum_data_size'
p365
S'1024'
p366
ssS'_'
p367
S'ATmega168'
p368
sS'build'
p369
(dp370
S'mcu'
p371
S'atmega168'
p372
sssS'atmega328'
p373
(dp374
S'bootloader'
p375
(dp376
S'extended_fuses'
p377
S'0x05'
p378
sS'high_fuses'
p379
S'0xDA'
p380
sS'file'
p381
S'atmega/ATmegaBOOT_168_atmega328.hex'
p382
ssS'upload'
p383
(dp384
S'maximum_size'
p385
S'30720'
p386
sS'speed'
p387
S'57600'
p388
sS'maximum_data_size'
p389
S'2048'
p390
ssg367
S'ATmega328'
p391
sS'build'
p392
(dp393
S'mcu'
p394
S'atmega328p'
p395
sssssS'upload'
p396
(dp397
S'tool'
p398
S'avrdude'
p399
sS'protocol'
p400
S'arduino'
p401
ssS'build'
p402
(dp403
S'core'
p404
S'arduino'
p405
sS'f_cpu'
p406
S'16000000L'
p407
sS'board'
p408
S'AVR_DUEMILANOVE'
p409
sS'variant'
p410
S'standard'
p411
ssg157
S'/usr/local/share/arduino/hardware/arduino/avr'
p412
sS'bootloader'
p413
(dp414
S'low_fuses'
p415
S'0xFF'
p416
sS'lock_bits'
p417
S'0x0F'
p418
sS'tool'
p419
S'avrdude'
p420
sS'unlock_bits'
p421
S'0x3F'
p422
ssaa(lp423
S'nano'
p424
a(dp425
S'name'
p426
S'Arduino Nano'
p427
sS'menu'
p428
(dp429
S'cpu'
p430
(dp431
S'atmega168'
p432
(dp433
S'bootloader'
p434
(dp435
S'low_fuses'
p436
S'0xff'
p437
sS'extended_fuses'
p438
S'0x00'
p439
sS'high_fuses'
p440
S'0xdd'
p441
sS'file'
p442
S'atmega/ATmegaBOOT_168_diecimila.hex'
p443
ssS'upload'
p444
(dp445
S'maximum_size'
p446
S'14336'
p447
sS'speed'
p448
S'19200'
p449
sS'maximum_data_size'
p450
S'1024'
p451
ssg367
S'ATmega168'
p452
sS'build'
p453
(dp454
S'mcu'
p455
S'atmega168'
p456
sssS'atmega328'
p457
(dp458
S'bootloader'
p459
(dp460
S'low_fuses'
p461
S'0xFF'
p462
sS'extended_fuses'
p463
S'0x05'
p464
sS'high_fuses'
p465
S'0xDA'
p466
sS'file'
p467
S'atmega/ATmegaBOOT_168_atmega328.hex'
p468
ssS'upload'
p469
(dp470
S'maximum_size'
p471
S'30720'
p472
sS'speed'
p473
S'57600'
p474
sS'maximum_data_size'
p475
S'2048'
p476
ssg367
S'ATmega328'
p477
sS'build'
p478
(dp479
S'mcu'
p480
S'atmega328p'
p481
sssssS'upload'
p482
(dp483
S'tool'
p484
S'avrdude'
p485
sS'protocol'
p486
S'arduino'
p487
ssS'build'
p488
(dp489
S'core'
p490
S'arduino'
p491
sS'f_cpu'
p492
S'16000000L'
p493
sS'board'
p494
S'AVR_NANO'
p495
sS'variant'
p496
S'eightanaloginputs'
p497
ssg157
S'/usr/local/share/arduino/hardware/arduino/avr'
p498
sS'bootloader'
p499
(dp500
S'lock_bits'
p501
S'0x0F'
p502
sS'tool'
p503
S'avrdude'
p504
sS'unlock_bits'
p505
S'0x3F'
p506
ssaa(lp507
S'mega'
p508
a(dp509
S'name'
p510
S'Arduino Mega or Mega 2560'
p511
sS'vid'
p512
(dp513
g222
S'0x2341'
p514
sg114
S'0x2341'
p515
ssS'menu'
p516
(dp517
S'cpu'
p518
(dp519
S'atmega1280'
p520
(dp521
S'bootloader'
p522
(dp523
S'extended_fuses'
p524
S'0xF5'
p525
sS'high_fuses'
p526
S'0xDA'
p527
sS'file'
p528
S'atmega/ATmegaBOOT_168_atmega1280.hex'
p529
ssS'upload'
p530
(dp531
S'speed'
p532
S'57600'
p533
sS'maximum_size'
p534
S'126976'
p535
sS'protocol'
p536
S'arduino'
p537
ssg367
S'ATmega1280'
p538
sS'build'
p539
(dp540
S'mcu'
p541
S'atmega1280'
p542
sS'board'
p543
S'AVR_MEGA'
p544
sssS'atmega2560'
p545
(dp546
S'bootloader'
p547
(dp548
S'extended_fuses'
p549
S'0xFD'
p550
sS'high_fuses'
p551
S'0xD8'
p552
sS'file'
p553
S'stk500v2/stk500boot_v2_mega2560.hex'
p554
ssS'upload'
p555
(dp556
S'speed'
p557
S'115200'
p558
sS'maximum_size'
p559
S'253952'
p560
sS'protocol'
p561
S'wiring'
p562
ssg367
S'ATmega2560 (Mega 2560)'
p563
sS'build'
p564
(dp565
S'mcu'
p566
S'atmega2560'
p567
sS'board'
p568
S'AVR_MEGA2560'
p569
sssssS'pid'
p570
(dp571
g222
S'0x0042'
p572
sg114
S'0x0010'
p573
ssS'upload'
p574
(dp575
S'tool'
p576
S'avrdude'
p577
sS'maximum_data_size'
p578
S'8192'
p579
ssS'build'
p580
(dp581
S'core'
p582
S'arduino'
p583
sS'f_cpu'
p584
S'16000000L'
p585
sS'board'
p586
S'AVR_MEGA2560'
p587
sS'variant'
p588
S'mega'
p589
ssg157
S'/usr/local/share/arduino/hardware/arduino/avr'
p590
sS'bootloader'
p591
(dp592
S'low_fuses'
p593
S'0xFF'
p594
sS'lock_bits'
p595
S'0x0F'
p596
sS'tool'
p597
S'avrdude'
p598
sS'unlock_bits'
p599
S'0x3F'
p600
ssaa(lp601
S'megaADK'
p602
a(dp603
S'name'
p604
S'Arduino Mega ADK'
p605
sS'vid'
p606
(dp607
g222
S'0x2341'
p608
sg114
S'0x2341'
p609
ssS'pid'
p610
(dp611
g222
S'0x0044'
p612
sg114
S'0x003f'
p613
ssS'upload'
p614
(dp615
S'speed'
p616
S'115200'
p617
sS'tool'
p618
S'avrdude'
p619
sS'protocol'
p620
S'wiring'
p621
sS'maximum_size'
p622
S'253952'
p623
sS'maximum_data_size'
p624
S'8192'
p625
ssS'build'
p626
(dp627
S'core'
p628
S'arduino'
p629
sS'mcu'
p630
S'atmega2560'
p631
sS'f_cpu'
p632
S'16000000L'
p633
sS'board'
p634
S'AVR_ADK'
p635
sS'variant'
p636
S'mega'
p637
ssg157
S'/usr/local/share/arduino/hardware/arduino/avr'
p638
sS'bootloader'
p639
(dp640
S'extended_fuses'
p641
S'0xFD'
p642
sS'high_fuses'
p643
S'0xD8'
p644
sS'low_fuses'
p645
S'0xFF'
p646
sS'lock_bits'
p647
S'0x0F'
p648
sS'tool'
p649
S'avrdude'
p650
sS'file'
p651
S'stk500v2/stk500boot_v2_mega2560.hex'
p652
sS'unlock_bits'
p653
S'0x3F'
p654
ssaa(lp655
S'leonardo'
p656
a(dp657
S'name'
p658
S'Arduino Leonardo'
p659
sS'vid'
p660
(dp661
g222
S'0x2341'
p662
sg114
S'0x2341'
p663
ssS'pid'
p664
(dp665
g222
S'0x8036'
p666
sg114
S'0x0036'
p667
ssS'upload'
p668
(dp669
S'protocol'
p670
S'avr109'
p671
sS'disable_flushing'
p672
S'true'
p673
sS'tool'
p674
S'avrdude'
p675
sS'maximum_data_size'
p676
S'2560'
p677
sS'maximum_size'
p678
S'28672'
p679
sS'use_1200bps_touch'
p680
S'true'
p681
sS'speed'
p682
S'57600'
p683
sS'wait_for_upload_port'
p684
S'true'
p685
ssS'build'
p686
(dp687
S'core'
p688
S'arduino'
p689
sS'f_cpu'
p690
S'16000000L'
p691
sS'vid'
p692
S'0x2341'
p693
sS'usb_product'
p694
S'"Arduino Leonardo"'
p695
sS'pid'
p696
S'0x8036'
p697
sS'extra_flags'
p698
S'{build.usb_flags}'
p699
sS'board'
p700
S'AVR_LEONARDO'
p701
sS'mcu'
p702
S'atmega32u4'
p703
sS'variant'
p704
S'leonardo'
p705
ssg157
S'/usr/local/share/arduino/hardware/arduino/avr'
p706
sS'bootloader'
p707
(dp708
S'extended_fuses'
p709
S'0xcb'
p710
sS'high_fuses'
p711
S'0xd8'
p712
sS'low_fuses'
p713
S'0xff'
p714
sS'lock_bits'
p715
S'0x2F'
p716
sS'tool'
p717
S'avrdude'
p718
sS'file'
p719
S'caterina/Caterina-Leonardo.hex'
p720
sS'unlock_bits'
p721
S'0x3F'
p722
ssaa(lp723
S'micro'
p724
a(dp725
S'build'
p726
(dp727
S'core'
p728
S'arduino'
p729
sS'f_cpu'
p730
S'16000000L'
p731
sS'vid'
p732
S'0x2341'
p733
sS'usb_product'
p734
S'"Arduino Micro"'
p735
sS'pid'
p736
S'0x8037'
p737
sS'extra_flags'
p738
S'{build.usb_flags}'
p739
sS'board'
p740
S'AVR_MICRO'
p741
sS'mcu'
p742
S'atmega32u4'
p743
sS'variant'
p744
S'micro'
p745
ssS'bootloader'
p746
(dp747
S'extended_fuses'
p748
S'0xcb'
p749
sS'high_fuses'
p750
S'0xd8'
p751
sS'low_fuses'
p752
S'0xff'
p753
sS'lock_bits'
p754
S'0x2F'
p755
sS'tool'
p756
S'avrdude'
p757
sS'file'
p758
S'caterina/Caterina-Micro.hex'
p759
sS'unlock_bits'
p760
S'0x3F'
p761
ssS'upload'
p762
(dp763
S'protocol'
p764
S'avr109'
p765
sS'disable_flushing'
p766
S'true'
p767
sS'tool'
p768
S'avrdude'
p769
sS'maximum_data_size'
p770
S'2560'
p771
sS'maximum_size'
p772
S'28672'
p773
sS'use_1200bps_touch'
p774
S'true'
p775
sS'speed'
p776
S'57600'
p777
sS'wait_for_upload_port'
p778
S'true'
p779
ssS'name'
p780
S'Arduino Micro'
p781
sg157
S'/usr/local/share/arduino/hardware/arduino/avr'
p782
saa(lp783
S'esplora'
p784
a(dp785
S'name'
p786
S'Arduino Esplora'
p787
sS'vid'
p788
(dp789
g222
S'0x2341'
p790
sg114
S'0x2341'
p791
ssS'pid'
p792
(dp793
g222
S'0x803c'
p794
sg114
S'0x003c'
p795
ssS'upload'
p796
(dp797
S'protocol'
p798
S'avr109'
p799
sS'disable_flushing'
p800
S'true'
p801
sS'tool'
p802
S'avrdude'
p803
sS'maximum_data_size'
p804
S'2560'
p805
sS'maximum_size'
p806
S'28672'
p807
sS'use_1200bps_touch'
p808
S'true'
p809
sS'speed'
p810
S'57600'
p811
sS'wait_for_upload_port'
p812
S'true'
p813
ssS'build'
p814
(dp815
S'core'
p816
S'arduino'
p817
sS'f_cpu'
p818
S'16000000L'
p819
sS'vid'
p820
S'0x2341'
p821
sS'usb_product'
p822
S'"Arduino Esplora"'
p823
sS'pid'
p824
S'0x803c'
p825
sS'extra_flags'
p826
S'{build.usb_flags}'
p827
sS'board'
p828
S'AVR_ESPLORA'
p829
sS'mcu'
p830
S'atmega32u4'
p831
sS'variant'
p832
S'leonardo'
p833
ssg157
S'/usr/local/share/arduino/hardware/arduino/avr'
p834
sS'bootloader'
p835
(dp836
S'extended_fuses'
p837
S'0xcb'
p838
sS'high_fuses'
p839
S'0xd8'
p840
sS'low_fuses'
p841
S'0xff'
p842
sS'lock_bits'
p843
S'0x2F'
p844
sS'tool'
p845
S'avrdude'
p846
sS'file'
p847
S'caterina/Caterina-Esplora.hex'
p848
sS'unlock_bits'
p849
S'0x3F'
p850
ssaa(lp851
S'mini'
p852
a(dp853
S'name'
p854
S'Arduino Mini'
p855
sS'menu'
p856
(dp857
S'cpu'
p858
(dp859
S'atmega168'
p860
(dp861
S'bootloader'
p862
(dp863
S'extended_fuses'
p864
S'0x00'
p865
sS'high_fuses'
p866
S'0xdd'
p867
sS'file'
p868
S'atmega/ATmegaBOOT_168_ng.hex'
p869
ssS'upload'
p870
(dp871
S'maximum_size'
p872
S'14336'
p873
sS'speed'
p874
S'19200'
p875
sS'maximum_data_size'
p876
S'1024'
p877
ssg367
S'ATmega168'
p878
sS'build'
p879
(dp880
S'mcu'
p881
S'atmega168'
p882
sssS'atmega328'
p883
(dp884
S'bootloader'
p885
(dp886
S'extended_fuses'
p887
S'0x05'
p888
sS'high_fuses'
p889
S'0xd8'
p890
sS'file'
p891
S'optiboot/optiboot_atmega328-Mini.hex'
p892
ssS'upload'
p893
(dp894
S'maximum_size'
p895
S'28672'
p896
sS'speed'
p897
S'115200'
p898
sS'maximum_data_size'
p899
S'2048'
p900
ssg367
S'ATmega328'
p901
sS'build'
p902
(dp903
S'mcu'
p904
S'atmega328p'
p905
sssssS'upload'
p906
(dp907
S'tool'
p908
S'avrdude'
p909
sS'protocol'
p910
S'arduino'
p911
ssS'build'
p912
(dp913
S'core'
p914
S'arduino'
p915
sS'f_cpu'
p916
S'16000000L'
p917
sS'board'
p918
S'AVR_MINI'
p919
sS'variant'
p920
S'eightanaloginputs'
p921
ssg157
S'/usr/local/share/arduino/hardware/arduino/avr'
p922
sS'bootloader'
p923
(dp924
S'low_fuses'
p925
S'0xff'
p926
sS'lock_bits'
p927
S'0x0F'
p928
sS'tool'
p929
S'avrdude'
p930
sS'unlock_bits'
p931
S'0x3F'
p932
ssaa(lp933
S'ethernet'
p934
a(dp935
S'build'
p936
(dp937
S'f_cpu'
p938
S'16000000L'
p939
sS'mcu'
p940
S'atmega328p'
p941
sS'variant'
p942
S'ethernet'
p943
sS'board'
p944
S'AVR_ETHERNET'
p945
sS'core'
p946
S'arduino'
p947
ssS'bootloader'
p948
(dp949
S'extended_fuses'
p950
S'0x05'
p951
sS'high_fuses'
p952
S'0xde'
p953
sS'low_fuses'
p954
S'0xff'
p955
sS'lock_bits'
p956
S'0x0F'
p957
sS'tool'
p958
S'avrdude'
p959
sS'file'
p960
S'optiboot/optiboot_atmega328.hex'
p961
sS'unlock_bits'
p962
S'0x3F'
p963
ssS'upload'
p964
(dp965
S'speed'
p966
S'115200'
p967
sS'tool'
p968
S'avrdude'
p969
sS'protocol'
p970
S'arduino'
p971
sS'maximum_size'
p972
S'32256'
p973
sS'maximum_data_size'
p974
S'2048'
p975
ssS'name'
p976
S'Arduino Ethernet'
p977
sg157
S'/usr/local/share/arduino/hardware/arduino/avr'
p978
saa(lp979
S'fio'
p980
a(dp981
S'build'
p982
(dp983
S'core'
p984
S'arduino'
p985
sS'mcu'
p986
S'atmega328p'
p987
sS'f_cpu'
p988
S'8000000L'
p989
sS'board'
p990
S'AVR_FIO'
p991
sS'variant'
p992
S'eightanaloginputs'
p993
ssS'bootloader'
p994
(dp995
S'extended_fuses'
p996
S'0x05'
p997
sS'high_fuses'
p998
S'0xDA'
p999
sS'low_fuses'
p1000
S'0xFF'
p1001
sS'lock_bits'
p1002
S'0x0F'
p1003
sS'tool'
p1004
S'avrdude'
p1005
sS'file'
p1006
S'atmega/ATmegaBOOT_168_atmega328_pro_8MHz.hex'
p1007
sS'unlock_bits'
p1008
S'0x3F'
p1009
ssS'upload'
p1010
(dp1011
S'speed'
p1012
S'57600'
p1013
sS'tool'
p1014
S'avrdude'
p1015
sS'protocol'
p1016
S'arduino'
p1017
sS'maximum_size'
p1018
S'30720'
p1019
sS'maximum_data_size'
p1020
S'2048'
p1021
ssS'name'
p1022
S'Arduino Fio'
p1023
sg157
S'/usr/local/share/arduino/hardware/arduino/avr'
p1024
saa(lp1025
S'bt'
p1026
a(dp1027
S'name'
p1028
S'Arduino BT'
p1029
sS'menu'
p1030
(dp1031
S'cpu'
p1032
(dp1033
S'atmega168'
p1034
(dp1035
S'bootloader'
p1036
(dp1037
S'extended_fuses'
p1038
S'0x00'
p1039
sS'high_fuses'
p1040
S'0xdd'
p1041
sS'file'
p1042
S'bt/ATmegaBOOT_168.hex'
p1043
ssS'upload'
p1044
(dp1045
S'maximum_size'
p1046
S'14336'
p1047
sS'maximum_data_size'
p1048
S'1024'
p1049
ssg367
S'ATmega168'
p1050
sS'build'
p1051
(dp1052
S'mcu'
p1053
S'atmega168'
p1054
sssS'atmega328'
p1055
(dp1056
S'bootloader'
p1057
(dp1058
S'extended_fuses'
p1059
S'0x05'
p1060
sS'high_fuses'
p1061
S'0xd8'
p1062
sS'file'
p1063
S'bt/ATmegaBOOT_168_atmega328_bt.hex'
p1064
ssS'upload'
p1065
(dp1066
S'maximum_size'
p1067
S'28672'
p1068
sS'maximum_data_size'
p1069
S'2048'
p1070
ssg367
S'ATmega328'
p1071
sS'build'
p1072
(dp1073
S'mcu'
p1074
S'atmega328p'
p1075
sssssS'upload'
p1076
(dp1077
S'speed'
p1078
S'19200'
p1079
sS'tool'
p1080
S'avrdude'
p1081
sS'protocol'
p1082
S'arduino'
p1083
sS'disable_flushing'
p1084
S'true'
p1085
ssS'build'
p1086
(dp1087
S'core'
p1088
S'arduino'
p1089
sS'f_cpu'
p1090
S'16000000L'
p1091
sS'board'
p1092
S'AVR_BT'
p1093
sS'variant'
p1094
S'eightanaloginputs'
p1095
ssg157
S'/usr/local/share/arduino/hardware/arduino/avr'
p1096
sS'bootloader'
p1097
(dp1098
S'low_fuses'
p1099
S'0xff'
p1100
sS'lock_bits'
p1101
S'0x0F'
p1102
sS'tool'
p1103
S'avrdude'
p1104
sS'unlock_bits'
p1105
S'0x3F'
p1106
ssaa(lp1107
S'LilyPadUSB'
p1108
a(dp1109
S'build'
p1110
(dp1111
S'core'
p1112
S'arduino'
p1113
sS'f_cpu'
p1114
S'8000000L'
p1115
sS'vid'
p1116
S'0x1B4F'
p1117
sS'usb_product'
p1118
S'"LilyPad USB"'
p1119
sS'pid'
p1120
S'0x9208'
p1121
sS'extra_flags'
p1122
S'{build.usb_flags}'
p1123
sS'board'
p1124
S'AVR_LILYPAD_USB'
p1125
sS'mcu'
p1126
S'atmega32u4'
p1127
sS'variant'
p1128
S'leonardo'
p1129
ssS'bootloader'
p1130
(dp1131
S'extended_fuses'
p1132
S'0xce'
p1133
sS'high_fuses'
p1134
S'0xd8'
p1135
sS'low_fuses'
p1136
S'0xff'
p1137
sS'lock_bits'
p1138
S'0x2F'
p1139
sS'tool'
p1140
S'avrdude'
p1141
sS'file'
p1142
S'caterina-LilyPadUSB/Caterina-LilyPadUSB.hex'
p1143
sS'unlock_bits'
p1144
S'0x3F'
p1145
ssS'upload'
p1146
(dp1147
S'protocol'
p1148
S'avr109'
p1149
sS'disable_flushing'
p1150
S'true'
p1151
sS'tool'
p1152
S'avrdude'
p1153
sS'maximum_data_size'
p1154
S'2560'
p1155
sS'maximum_size'
p1156
S'28672'
p1157
sS'use_1200bps_touch'
p1158
S'true'
p1159
sS'speed'
p1160
S'57600'
p1161
sS'wait_for_upload_port'
p1162
S'true'
p1163
ssS'name'
p1164
S'LilyPad Arduino USB'
p1165
sg157
S'/usr/local/share/arduino/hardware/arduino/avr'
p1166
saa(lp1167
S'lilypad'
p1168
a(dp1169
S'name'
p1170
S'LilyPad Arduino'
p1171
sS'menu'
p1172
(dp1173
S'cpu'
p1174
(dp1175
S'atmega168'
p1176
(dp1177
S'bootloader'
p1178
(dp1179
S'low_fuses'
p1180
S'0xe2'
p1181
sS'extended_fuses'
p1182
S'0x00'
p1183
sS'high_fuses'
p1184
S'0xdd'
p1185
sS'file'
p1186
S'lilypad/LilyPadBOOT_168.hex'
p1187
ssS'upload'
p1188
(dp1189
S'maximum_size'
p1190
S'14336'
p1191
sS'speed'
p1192
S'19200'
p1193
sS'maximum_data_size'
p1194
S'1024'
p1195
ssg367
S'ATmega168'
p1196
sS'build'
p1197
(dp1198
S'mcu'
p1199
S'atmega168'
p1200
sssS'atmega328'
p1201
(dp1202
S'bootloader'
p1203
(dp1204
S'low_fuses'
p1205
S'0xFF'
p1206
sS'extended_fuses'
p1207
S'0x05'
p1208
sS'high_fuses'
p1209
S'0xDA'
p1210
sS'file'
p1211
S'atmega/ATmegaBOOT_168_atmega328_pro_8MHz.hex'
p1212
ssS'upload'
p1213
(dp1214
S'maximum_size'
p1215
S'30720'
p1216
sS'speed'
p1217
S'57600'
p1218
sS'maximum_data_size'
p1219
S'2048'
p1220
ssg367
S'ATmega328'
p1221
sS'build'
p1222
(dp1223
S'mcu'
p1224
S'atmega328p'
p1225
sssssS'upload'
p1226
(dp1227
S'tool'
p1228
S'avrdude'
p1229
sS'protocol'
p1230
S'arduino'
p1231
ssS'build'
p1232
(dp1233
S'core'
p1234
S'arduino'
p1235
sS'f_cpu'
p1236
S'8000000L'
p1237
sS'board'
p1238
S'AVR_LILYPAD'
p1239
sS'variant'
p1240
S'standard'
p1241
ssg157
S'/usr/local/share/arduino/hardware/arduino/avr'
p1242
sS'bootloader'
p1243
(dp1244
S'lock_bits'
p1245
S'0x0F'
p1246
sS'tool'
p1247
S'avrdude'
p1248
sS'unlock_bits'
p1249
S'0x3F'
p1250
ssaa(lp1251
S'pro'
p1252
a(dp1253
S'name'
p1254
S'Arduino Pro or Pro Mini'
p1255
sS'menu'
p1256
(dp1257
S'cpu'
p1258
(dp1259
S'16MHzatmega328'
p1260
(dp1261
S'bootloader'
p1262
(dp1263
S'low_fuses'
p1264
S'0xFF'
p1265
sS'extended_fuses'
p1266
S'0x05'
p1267
sS'high_fuses'
p1268
S'0xDA'
p1269
sS'file'
p1270
S'atmega/ATmegaBOOT_168_atmega328.hex'
p1271
ssS'upload'
p1272
(dp1273
S'maximum_size'
p1274
S'30720'
p1275
sS'speed'
p1276
S'57600'
p1277
sS'maximum_data_size'
p1278
S'2048'
p1279
ssg367
S'ATmega328 (5V, 16 MHz)'
p1280
sS'build'
p1281
(dp1282
S'mcu'
p1283
S'atmega328p'
p1284
sS'f_cpu'
p1285
S'16000000L'
p1286
sssS'8MHzatmega328'
p1287
(dp1288
S'bootloader'
p1289
(dp1290
S'low_fuses'
p1291
S'0xFF'
p1292
sS'extended_fuses'
p1293
S'0x05'
p1294
sS'high_fuses'
p1295
S'0xDA'
p1296
sS'file'
p1297
S'atmega/ATmegaBOOT_168_atmega328_pro_8MHz.hex'
p1298
ssS'upload'
p1299
(dp1300
S'maximum_size'
p1301
S'30720'
p1302
sS'speed'
p1303
S'57600'
p1304
sS'maximum_data_size'
p1305
S'2048'
p1306
ssg367
S'ATmega328 (3.3V, 8 MHz)'
p1307
sS'build'
p1308
(dp1309
S'mcu'
p1310
S'atmega328p'
p1311
sS'f_cpu'
p1312
S'8000000L'
p1313
sssS'8MHzatmega168'
p1314
(dp1315
S'bootloader'
p1316
(dp1317
S'low_fuses'
p1318
S'0xc6'
p1319
sS'extended_fuses'
p1320
S'0x00'
p1321
sS'high_fuses'
p1322
S'0xdd'
p1323
sS'file'
p1324
S'atmega/ATmegaBOOT_168_pro_8MHz.hex'
p1325
ssS'upload'
p1326
(dp1327
S'maximum_size'
p1328
S'14336'
p1329
sS'speed'
p1330
S'19200'
p1331
sS'maximum_data_size'
p1332
S'1024'
p1333
ssg367
S'ATmega168 (3.3V, 8 MHz)'
p1334
sS'build'
p1335
(dp1336
S'mcu'
p1337
S'atmega168'
p1338
sS'f_cpu'
p1339
S'8000000L'
p1340
sssS'16MHzatmega168'
p1341
(dp1342
S'bootloader'
p1343
(dp1344
S'low_fuses'
p1345
S'0xff'
p1346
sS'extended_fuses'
p1347
S'0x00'
p1348
sS'high_fuses'
p1349
S'0xdd'
p1350
sS'file'
p1351
S'atmega/ATmegaBOOT_168_diecimila.hex'
p1352
ssS'upload'
p1353
(dp1354
S'maximum_size'
p1355
S'14336'
p1356
sS'speed'
p1357
S'19200'
p1358
sS'maximum_data_size'
p1359
S'1024'
p1360
ssg367
S'ATmega168 (5V, 16 MHz)'
p1361
sS'build'
p1362
(dp1363
S'mcu'
p1364
S'atmega168'
p1365
sS'f_cpu'
p1366
S'16000000L'
p1367
sssssS'upload'
p1368
(dp1369
S'tool'
p1370
S'avrdude'
p1371
sS'protocol'
p1372
S'arduino'
p1373
ssS'build'
p1374
(dp1375
S'core'
p1376
S'arduino'
p1377
sS'variant'
p1378
S'eightanaloginputs'
p1379
sS'board'
p1380
S'AVR_PRO'
p1381
ssg157
S'/usr/local/share/arduino/hardware/arduino/avr'
p1382
sS'bootloader'
p1383
(dp1384
S'lock_bits'
p1385
S'0x0F'
p1386
sS'tool'
p1387
S'avrdude'
p1388
sS'unlock_bits'
p1389
S'0x3F'
p1390
ssaa(lp1391
S'atmegang'
p1392
a(dp1393
S'name'
p1394
S'Arduino NG or older'
p1395
sS'menu'
p1396
(dp1397
S'cpu'
p1398
(dp1399
S'atmega168'
p1400
(dp1401
S'bootloader'
p1402
(dp1403
S'low_fuses'
p1404
S'0xff'
p1405
sS'extended_fuses'
p1406
S'0x00'
p1407
sS'high_fuses'
p1408
S'0xdd'
p1409
sS'file'
p1410
S'atmega/ATmegaBOOT_168_ng.hex'
p1411
ssS'upload'
p1412
(dp1413
S'maximum_size'
p1414
S'14336'
p1415
sS'maximum_data_size'
p1416
S'1024'
p1417
ssg367
S'ATmega168'
p1418
sS'build'
p1419
(dp1420
S'mcu'
p1421
S'atmega168'
p1422
sssS'atmega8'
p1423
(dp1424
S'bootloader'
p1425
(dp1426
S'low_fuses'
p1427
S'0xdf'
p1428
sS'high_fuses'
p1429
S'0xca'
p1430
sS'file'
p1431
S'atmega8/ATmegaBOOT-prod-firmware-2009-11-07.hex'
p1432
ssS'upload'
p1433
(dp1434
S'maximum_size'
p1435
S'7168'
p1436
sS'maximum_data_size'
p1437
S'1024'
p1438
ssg367
S'ATmega8'
p1439
sS'build'
p1440
(dp1441
S'mcu'
p1442
S'atmega8'
p1443
sssssS'upload'
p1444
(dp1445
S'speed'
p1446
S'19200'
p1447
sS'tool'
p1448
S'avrdude'
p1449
sS'protocol'
p1450
S'arduino'
p1451
ssS'build'
p1452
(dp1453
S'core'
p1454
S'arduino'
p1455
sS'mcu'
p1456
S'atmegang'
p1457
sS'f_cpu'
p1458
S'16000000L'
p1459
sS'board'
p1460
S'AVR_NG'
p1461
sS'variant'
p1462
S'standard'
p1463
ssg157
S'/usr/local/share/arduino/hardware/arduino/avr'
p1464
sS'bootloader'
p1465
(dp1466
S'lock_bits'
p1467
S'0x0F'
p1468
sS'tool'
p1469
S'avrdude'
p1470
sS'unlock_bits'
p1471
S'0x3F'
p1472
ssaa(lp1473
S'robotControl'
p1474
a(dp1475
S'build'
p1476
(dp1477
S'core'
p1478
S'arduino'
p1479
sS'f_cpu'
p1480
S'16000000L'
p1481
sS'vid'
p1482
S'0x2341'
p1483
sS'usb_product'
p1484
S'"Robot Control"'
p1485
sS'pid'
p1486
S'0x8038'
p1487
sS'extra_flags'
p1488
S'{build.usb_flags}'
p1489
sS'board'
p1490
S'AVR_ROBOT_CONTROL'
p1491
sS'mcu'
p1492
S'atmega32u4'
p1493
sS'variant'
p1494
S'robot_control'
p1495
ssS'bootloader'
p1496
(dp1497
S'extended_fuses'
p1498
S'0xcb'
p1499
sS'high_fuses'
p1500
S'0xd8'
p1501
sS'low_fuses'
p1502
S'0xff'
p1503
sS'lock_bits'
p1504
S'0x2F'
p1505
sS'tool'
p1506
S'avrdude'
p1507
sS'file'
p1508
S'caterina-Arduino_Robot/Caterina-Robot-Control.hex'
p1509
sS'unlock_bits'
p1510
S'0x3F'
p1511
ssS'upload'
p1512
(dp1513
S'protocol'
p1514
S'avr109'
p1515
sS'disable_flushing'
p1516
S'true'
p1517
sS'tool'
p1518
S'avrdude'
p1519
sS'maximum_data_size'
p1520
S'2560'
p1521
sS'maximum_size'
p1522
S'28672'
p1523
sS'use_1200bps_touch'
p1524
S'true'
p1525
sS'speed'
p1526
S'57600'
p1527
sS'wait_for_upload_port'
p1528
S'true'
p1529
ssS'name'
p1530
S'Arduino Robot Control'
p1531
sg157
S'/usr/local/share/arduino/hardware/arduino/avr'
p1532
saa(lp1533
S'robotMotor'
p1534
a(dp1535
S'build'
p1536
(dp1537
S'core'
p1538
S'arduino'
p1539
sS'f_cpu'
p1540
S'16000000L'
p1541
sS'vid'
p1542
S'0x2341'
p1543
sS'usb_product'
p1544
S'"Robot Motor"'
p1545
sS'pid'
p1546
S'0x8039'
p1547
sS'extra_flags'
p1548
S'{build.usb_flags}'
p1549
sS'board'
p1550
S'AVR_ROBOT_MOTOR'
p1551
sS'mcu'
p1552
S'atmega32u4'
p1553
sS'variant'
p1554
S'robot_motor'
p1555
ssS'bootloader'
p1556
(dp1557
S'extended_fuses'
p1558
S'0xcb'
p1559
sS'high_fuses'
p1560
S'0xd8'
p1561
sS'low_fuses'
p1562
S'0xff'
p1563
sS'lock_bits'
p1564
S'0x2F'
p1565
sS'tool'
p1566
S'avrdude'
p1567
sS'file'
p1568
S'caterina-Arduino_Robot/Caterina-Robot-Motor.hex'
p1569
sS'unlock_bits'
p1570
S'0x3F'
p1571
ssS'upload'
p1572
(dp1573
S'protocol'
p1574
S'avr109'
p1575
sS'disable_flushing'
p1576
S'true'
p1577
sS'tool'
p1578
S'avrdude'
p1579
sS'maximum_data_size'
p1580
S'2560'
p1581
sS'maximum_size'
p1582
S'28672'
p1583
sS'use_1200bps_touch'
p1584
S'true'
p1585
sS'speed'
p1586
S'57600'
p1587
sS'wait_for_upload_port'
p1588
S'true'
p1589
ssS'name'
p1590
S'Arduino Robot Motor'
p1591
sg157
S'/usr/local/share/arduino/hardware/arduino/avr'
p1592
saatp1593
Rp1594
(dp1595
S'default'
p1596
S'uno'
p1597
sbtp1598
a(S'cxx'
p1599
S'/usr/local/share/arduino/hardware/tools/avr/bin/avr-g++'
p1600
tp1601
a.