(lp0
(S'cppflags'
p1
ccopy_reg
_reconstructor
p2
(cino.utils
SpaceList
p3
c__builtin__
list
p4
(lp5
S'-mmcu=atmega328p'
p6
aS'-DF_CPU=16000000L'
p7
aS'-DARDUINO=160'
p8
aS'-I/usr/local/share/arduino/hardware/arduino/avr/cores/arduino'
p9
aS'-ffunction-sections'
p10
aS'-fdata-sections'
p11
aS'-g'
p12
aS'-Os'
p13
aS'-w'
p14
aS'-I/usr/local/share/arduino/hardware/arduino/avr/variants/standard'
p15
aS'-Ilib/SeeedTouchScreen'
p16
aS'-Ilib/TFTv2'
p17
aS'-Ilib/SPI'
p18
aS'-I/usr/local/share/arduino/hardware/arduino/avr/cores/arduino'
p19
atp20
Rp21
tp22
a(S'cxx'
p23
S'/usr/local/share/arduino/hardware/tools/avr/bin/avr-g++'
p24
tp25
a(S'arduino_libraries_dir'
p26
S'/usr/local/share/arduino/libraries'
p27
tp28
a(S'avrdude'
p29
S'/usr/local/share/arduino/hardware/tools/avr/bin/avrdude'
p30
tp31
a(S'ar'
p32
S'/usr/local/share/arduino/hardware/tools/avr/bin/avr-ar'
p33
tp34
a(S'names'
p35
(dp36
S'cpp'
p37
S'%s.cpp'
p38
sS'obj'
p39
S'%s.o'
p40
sS'lib'
p41
S'lib%s.a'
p42
sS'deps'
p43
S'%s.d'
p44
stp45
a(S'ldflags'
p46
g2
(g3
g4
(lp47
g6
aS'-Wl,-Os'
p48
aS'-Wl,--gc-sections'
p49
atp50
Rp51
tp52
a(S'arduino_lib_version'
p53
g2
(cino.environment
Version
p54
c__builtin__
tuple
p55
(I1
I6
I0
tp56
tp57
Rp58
tp59
a(S'objcopy'
p60
S'/usr/local/share/arduino/hardware/tools/avr/bin/avr-objcopy'
p61
tp62
a(S'board_models'
p63
cino.environment
BoardModels
p64
((lp65
(lp66
S'arduino_due_x_dbg'
p67
a(dp68
S'name'
p69
S'Arduino Due (Programming Port)'
p70
sS'vid'
p71
(dp72
S'0'
p73
S'0x2341'
p74
ssS'pid'
p75
(dp76
g73
S'0x003d'
p77
ssS'upload'
p78
(dp79
S'protocol'
p80
S'sam-ba'
p81
sS'wait_for_upload_port'
p82
S'false'
p83
sS'tool'
p84
S'bossac'
p85
sS'native_usb'
p86
S'false'
p87
sS'maximum_size'
p88
S'524288'
p89
sS'use_1200bps_touch'
p90
S'true'
p91
ssS'build'
p92
(dp93
S'core'
p94
S'arduino'
p95
sS'ldscript'
p96
S'linker_scripts/gcc/flash.ld'
p97
sS'f_cpu'
p98
S'84000000L'
p99
sS'vid'
p100
S'0x2341'
p101
sS'pid'
p102
S'0x003e'
p103
sS'variant'
p104
S'arduino_due_x'
p105
sS'extra_flags'
p106
S'-D__SAM3X8E__ -mthumb {build.usb_flags}'
p107
sS'variant_system_lib'
p108
S'libsam_sam3x8e_gcc_rel.a'
p109
sS'board'
p110
S'SAM_DUE'
p111
sS'usb_product'
p112
S'"Arduino Due"'
p113
sS'mcu'
p114
S'cortex-m3'
p115
ssS'_coredir'
p116
S'/usr/local/share/arduino/hardware/arduino/sam'
p117
saa(lp118
S'arduino_due_x'
p119
a(dp120
S'name'
p121
S'Arduino Due (Native USB Port)'
p122
sS'vid'
p123
(dp124
g73
S'0x2341'
p125
ssS'pid'
p126
(dp127
g73
S'0x003e'
p128
ssS'upload'
p129
(dp130
S'protocol'
p131
S'sam-ba'
p132
sS'wait_for_upload_port'
p133
S'true'
p134
sS'tool'
p135
S'bossac'
p136
sS'native_usb'
p137
S'true'
p138
sS'maximum_size'
p139
S'524288'
p140
sS'use_1200bps_touch'
p141
S'true'
p142
ssS'build'
p143
(dp144
S'core'
p145
S'arduino'
p146
sS'ldscript'
p147
S'linker_scripts/gcc/flash.ld'
p148
sS'f_cpu'
p149
S'84000000L'
p150
sS'vid'
p151
S'0x2341'
p152
sS'pid'
p153
S'0x003e'
p154
sS'variant'
p155
S'arduino_due_x'
p156
sS'extra_flags'
p157
S'-D__SAM3X8E__ -mthumb {build.usb_flags}'
p158
sS'variant_system_lib'
p159
S'libsam_sam3x8e_gcc_rel.a'
p160
sS'board'
p161
S'SAM_DUE'
p162
sS'usb_product'
p163
S'"Arduino Due"'
p164
sS'mcu'
p165
S'cortex-m3'
p166
ssg116
S'/usr/local/share/arduino/hardware/arduino/sam'
p167
saa(lp168
S'menu'
p169
a(dp170
S'cpu'
p171
S'Processor'
p172
sg116
S'/usr/local/share/arduino/hardware/arduino/avr'
p173
saa(lp174
S'yun'
p175
a(dp176
S'name'
p177
S'Arduino Y\xc3\xban'
p178
sS'vid'
p179
(dp180
S'1'
p181
S'0x2341'
p182
sg73
S'0x2341'
p183
ssS'pid'
p184
(dp185
g181
S'0x8041'
p186
sg73
S'0x0041'
p187
ssS'upload'
p188
(dp189
S'via_ssh'
p190
S'true'
p191
sS'disable_flushing'
p192
S'true'
p193
sS'tool'
p194
S'avrdude'
p195
sS'maximum_data_size'
p196
S'2560'
p197
sS'protocol'
p198
S'avr109'
p199
sS'maximum_size'
p200
S'28672'
p201
sS'use_1200bps_touch'
p202
S'true'
p203
sS'speed'
p204
S'57600'
p205
sS'wait_for_upload_port'
p206
S'true'
p207
ssS'build'
p208
(dp209
S'core'
p210
S'arduino'
p211
sS'f_cpu'
p212
S'16000000L'
p213
sS'vid'
p214
S'0x2341'
p215
sS'usb_product'
p216
S'"Arduino Yun"'
p217
sS'pid'
p218
S'0x8041'
p219
sS'extra_flags'
p220
S'{build.usb_flags}'
p221
sS'board'
p222
S'AVR_YUN'
p223
sS'mcu'
p224
S'atmega32u4'
p225
sS'variant'
p226
S'yun'
p227
ssg116
S'/usr/local/share/arduino/hardware/arduino/avr'
p228
sS'bootloader'
p229
(dp230
S'extended_fuses'
p231
S'0xfb'
p232
sS'high_fuses'
p233
S'0xd8'
p234
sS'low_fuses'
p235
S'0xff'
p236
sS'lock_bits'
p237
S'0x2F'
p238
sS'tool'
p239
S'avrdude'
p240
sS'file'
p241
S'caterina/Caterina-Yun.hex'
p242
sS'unlock_bits'
p243
S'0x3F'
p244
ssaa(lp245
S'uno'
p246
a(dp247
S'name'
p248
S'Arduino Uno'
p249
sS'vid'
p250
(dp251
g181
S'0x2341'
p252
sg73
S'0x2341'
p253
ssS'pid'
p254
(dp255
g181
S'0x0001'
p256
sg73
S'0x0043'
p257
ssS'upload'
p258
(dp259
S'protocol'
p260
S'arduino'
p261
sS'tool'
p262
S'avrdude'
p263
sS'speed'
p264
S'115200'
p265
sS'maximum_size'
p266
S'32256'
p267
sS'maximum_data_size'
p268
S'2048'
p269
ssS'build'
p270
(dp271
S'core'
p272
S'arduino'
p273
sS'mcu'
p274
S'atmega328p'
p275
sS'f_cpu'
p276
S'16000000L'
p277
sS'board'
p278
S'AVR_UNO'
p279
sS'variant'
p280
S'standard'
p281
ssg116
S'/usr/local/share/arduino/hardware/arduino/avr'
p282
sS'bootloader'
p283
(dp284
S'extended_fuses'
p285
S'0x05'
p286
sS'high_fuses'
p287
S'0xDE'
p288
sS'low_fuses'
p289
S'0xFF'
p290
sS'lock_bits'
p291
S'0x0F'
p292
sS'tool'
p293
S'avrdude'
p294
sS'file'
p295
S'optiboot/optiboot_atmega328.hex'
p296
sS'unlock_bits'
p297
S'0x3F'
p298
ssaa(lp299
S'diecimila'
p300
a(dp301
S'name'
p302
S'Arduino Duemilanove or Diecimila'
p303
sS'menu'
p304
(dp305
S'cpu'
p306
(dp307
S'atmega168'
p308
(dp309
S'bootloader'
p310
(dp311
S'extended_fuses'
p312
S'0x00'
p313
sS'high_fuses'
p314
S'0xdd'
p315
sS'file'
p316
S'atmega/ATmegaBOOT_168_diecimila.hex'
p317
ssS'upload'
p318
(dp319
S'maximum_size'
p320
S'14336'
p321
sS'speed'
p322
S'19200'
p323
sS'maximum_data_size'
p324
S'1024'
p325
ssS'_'
p326
S'ATmega168'
p327
sS'build'
p328
(dp329
S'mcu'
p330
S'atmega168'
p331
sssS'atmega328'
p332
(dp333
S'bootloader'
p334
(dp335
S'extended_fuses'
p336
S'0x05'
p337
sS'high_fuses'
p338
S'0xDA'
p339
sS'file'
p340
S'atmega/ATmegaBOOT_168_atmega328.hex'
p341
ssS'upload'
p342
(dp343
S'maximum_size'
p344
S'30720'
p345
sS'speed'
p346
S'57600'
p347
sS'maximum_data_size'
p348
S'2048'
p349
ssg326
S'ATmega328'
p350
sS'build'
p351
(dp352
S'mcu'
p353
S'atmega328p'
p354
sssssS'upload'
p355
(dp356
S'tool'
p357
S'avrdude'
p358
sS'protocol'
p359
S'arduino'
p360
ssS'build'
p361
(dp362
S'core'
p363
S'arduino'
p364
sS'f_cpu'
p365
S'16000000L'
p366
sS'board'
p367
S'AVR_DUEMILANOVE'
p368
sS'variant'
p369
S'standard'
p370
ssg116
S'/usr/local/share/arduino/hardware/arduino/avr'
p371
sS'bootloader'
p372
(dp373
S'low_fuses'
p374
S'0xFF'
p375
sS'lock_bits'
p376
S'0x0F'
p377
sS'tool'
p378
S'avrdude'
p379
sS'unlock_bits'
p380
S'0x3F'
p381
ssaa(lp382
S'nano'
p383
a(dp384
S'name'
p385
S'Arduino Nano'
p386
sS'menu'
p387
(dp388
S'cpu'
p389
(dp390
S'atmega168'
p391
(dp392
S'bootloader'
p393
(dp394
S'low_fuses'
p395
S'0xff'
p396
sS'extended_fuses'
p397
S'0x00'
p398
sS'high_fuses'
p399
S'0xdd'
p400
sS'file'
p401
S'atmega/ATmegaBOOT_168_diecimila.hex'
p402
ssS'upload'
p403
(dp404
S'maximum_size'
p405
S'14336'
p406
sS'speed'
p407
S'19200'
p408
sS'maximum_data_size'
p409
S'1024'
p410
ssg326
S'ATmega168'
p411
sS'build'
p412
(dp413
S'mcu'
p414
S'atmega168'
p415
sssS'atmega328'
p416
(dp417
S'bootloader'
p418
(dp419
S'low_fuses'
p420
S'0xFF'
p421
sS'extended_fuses'
p422
S'0x05'
p423
sS'high_fuses'
p424
S'0xDA'
p425
sS'file'
p426
S'atmega/ATmegaBOOT_168_atmega328.hex'
p427
ssS'upload'
p428
(dp429
S'maximum_size'
p430
S'30720'
p431
sS'speed'
p432
S'57600'
p433
sS'maximum_data_size'
p434
S'2048'
p435
ssg326
S'ATmega328'
p436
sS'build'
p437
(dp438
S'mcu'
p439
S'atmega328p'
p440
sssssS'upload'
p441
(dp442
S'tool'
p443
S'avrdude'
p444
sS'protocol'
p445
S'arduino'
p446
ssS'build'
p447
(dp448
S'core'
p449
S'arduino'
p450
sS'f_cpu'
p451
S'16000000L'
p452
sS'board'
p453
S'AVR_NANO'
p454
sS'variant'
p455
S'eightanaloginputs'
p456
ssg116
S'/usr/local/share/arduino/hardware/arduino/avr'
p457
sS'bootloader'
p458
(dp459
S'lock_bits'
p460
S'0x0F'
p461
sS'tool'
p462
S'avrdude'
p463
sS'unlock_bits'
p464
S'0x3F'
p465
ssaa(lp466
S'mega'
p467
a(dp468
S'name'
p469
S'Arduino Mega or Mega 2560'
p470
sS'vid'
p471
(dp472
g181
S'0x2341'
p473
sg73
S'0x2341'
p474
ssS'menu'
p475
(dp476
S'cpu'
p477
(dp478
S'atmega2560'
p479
(dp480
S'bootloader'
p481
(dp482
S'extended_fuses'
p483
S'0xFD'
p484
sS'high_fuses'
p485
S'0xD8'
p486
sS'file'
p487
S'stk500v2/stk500boot_v2_mega2560.hex'
p488
ssS'upload'
p489
(dp490
S'protocol'
p491
S'wiring'
p492
sS'maximum_size'
p493
S'253952'
p494
sS'speed'
p495
S'115200'
p496
ssg326
S'ATmega2560 (Mega 2560)'
p497
sS'build'
p498
(dp499
S'mcu'
p500
S'atmega2560'
p501
sS'board'
p502
S'AVR_MEGA2560'
p503
sssS'atmega1280'
p504
(dp505
S'bootloader'
p506
(dp507
S'extended_fuses'
p508
S'0xF5'
p509
sS'high_fuses'
p510
S'0xDA'
p511
sS'file'
p512
S'atmega/ATmegaBOOT_168_atmega1280.hex'
p513
ssS'upload'
p514
(dp515
S'protocol'
p516
S'arduino'
p517
sS'maximum_size'
p518
S'126976'
p519
sS'speed'
p520
S'57600'
p521
ssg326
S'ATmega1280'
p522
sS'build'
p523
(dp524
S'mcu'
p525
S'atmega1280'
p526
sS'board'
p527
S'AVR_MEGA'
p528
sssssS'pid'
p529
(dp530
g181
S'0x0042'
p531
sg73
S'0x0010'
p532
ssS'upload'
p533
(dp534
S'tool'
p535
S'avrdude'
p536
sS'maximum_data_size'
p537
S'8192'
p538
ssS'build'
p539
(dp540
S'core'
p541
S'arduino'
p542
sS'f_cpu'
p543
S'16000000L'
p544
sS'board'
p545
S'AVR_MEGA2560'
p546
sS'variant'
p547
S'mega'
p548
ssg116
S'/usr/local/share/arduino/hardware/arduino/avr'
p549
sS'bootloader'
p550
(dp551
S'low_fuses'
p552
S'0xFF'
p553
sS'lock_bits'
p554
S'0x0F'
p555
sS'tool'
p556
S'avrdude'
p557
sS'unlock_bits'
p558
S'0x3F'
p559
ssaa(lp560
S'megaADK'
p561
a(dp562
S'name'
p563
S'Arduino Mega ADK'
p564
sS'vid'
p565
(dp566
g181
S'0x2341'
p567
sg73
S'0x2341'
p568
ssS'pid'
p569
(dp570
g181
S'0x0044'
p571
sg73
S'0x003f'
p572
ssS'upload'
p573
(dp574
S'protocol'
p575
S'wiring'
p576
sS'tool'
p577
S'avrdude'
p578
sS'speed'
p579
S'115200'
p580
sS'maximum_size'
p581
S'253952'
p582
sS'maximum_data_size'
p583
S'8192'
p584
ssS'build'
p585
(dp586
S'core'
p587
S'arduino'
p588
sS'mcu'
p589
S'atmega2560'
p590
sS'f_cpu'
p591
S'16000000L'
p592
sS'board'
p593
S'AVR_ADK'
p594
sS'variant'
p595
S'mega'
p596
ssg116
S'/usr/local/share/arduino/hardware/arduino/avr'
p597
sS'bootloader'
p598
(dp599
S'extended_fuses'
p600
S'0xFD'
p601
sS'high_fuses'
p602
S'0xD8'
p603
sS'low_fuses'
p604
S'0xFF'
p605
sS'lock_bits'
p606
S'0x0F'
p607
sS'tool'
p608
S'avrdude'
p609
sS'file'
p610
S'stk500v2/stk500boot_v2_mega2560.hex'
p611
sS'unlock_bits'
p612
S'0x3F'
p613
ssaa(lp614
S'leonardo'
p615
a(dp616
S'name'
p617
S'Arduino Leonardo'
p618
sS'vid'
p619
(dp620
g181
S'0x2341'
p621
sg73
S'0x2341'
p622
ssS'pid'
p623
(dp624
g181
S'0x8036'
p625
sg73
S'0x0036'
p626
ssS'upload'
p627
(dp628
S'protocol'
p629
S'avr109'
p630
sS'disable_flushing'
p631
S'true'
p632
sS'tool'
p633
S'avrdude'
p634
sS'maximum_data_size'
p635
S'2560'
p636
sS'maximum_size'
p637
S'28672'
p638
sS'use_1200bps_touch'
p639
S'true'
p640
sS'speed'
p641
S'57600'
p642
sS'wait_for_upload_port'
p643
S'true'
p644
ssS'build'
p645
(dp646
S'core'
p647
S'arduino'
p648
sS'f_cpu'
p649
S'16000000L'
p650
sS'vid'
p651
S'0x2341'
p652
sS'usb_product'
p653
S'"Arduino Leonardo"'
p654
sS'pid'
p655
S'0x8036'
p656
sS'extra_flags'
p657
S'{build.usb_flags}'
p658
sS'board'
p659
S'AVR_LEONARDO'
p660
sS'mcu'
p661
S'atmega32u4'
p662
sS'variant'
p663
S'leonardo'
p664
ssg116
S'/usr/local/share/arduino/hardware/arduino/avr'
p665
sS'bootloader'
p666
(dp667
S'extended_fuses'
p668
S'0xcb'
p669
sS'high_fuses'
p670
S'0xd8'
p671
sS'low_fuses'
p672
S'0xff'
p673
sS'lock_bits'
p674
S'0x2F'
p675
sS'tool'
p676
S'avrdude'
p677
sS'file'
p678
S'caterina/Caterina-Leonardo.hex'
p679
sS'unlock_bits'
p680
S'0x3F'
p681
ssaa(lp682
S'micro'
p683
a(dp684
g116
S'/usr/local/share/arduino/hardware/arduino/avr'
p685
sS'bootloader'
p686
(dp687
S'extended_fuses'
p688
S'0xcb'
p689
sS'high_fuses'
p690
S'0xd8'
p691
sS'low_fuses'
p692
S'0xff'
p693
sS'lock_bits'
p694
S'0x2F'
p695
sS'tool'
p696
S'avrdude'
p697
sS'file'
p698
S'caterina/Caterina-Micro.hex'
p699
sS'unlock_bits'
p700
S'0x3F'
p701
ssS'build'
p702
(dp703
S'core'
p704
S'arduino'
p705
sS'f_cpu'
p706
S'16000000L'
p707
sS'vid'
p708
S'0x2341'
p709
sS'usb_product'
p710
S'"Arduino Micro"'
p711
sS'pid'
p712
S'0x8037'
p713
sS'extra_flags'
p714
S'{build.usb_flags}'
p715
sS'board'
p716
S'AVR_MICRO'
p717
sS'mcu'
p718
S'atmega32u4'
p719
sS'variant'
p720
S'micro'
p721
ssS'name'
p722
S'Arduino Micro'
p723
sS'upload'
p724
(dp725
S'protocol'
p726
S'avr109'
p727
sS'disable_flushing'
p728
S'true'
p729
sS'tool'
p730
S'avrdude'
p731
sS'maximum_data_size'
p732
S'2560'
p733
sS'maximum_size'
p734
S'28672'
p735
sS'use_1200bps_touch'
p736
S'true'
p737
sS'speed'
p738
S'57600'
p739
sS'wait_for_upload_port'
p740
S'true'
p741
ssaa(lp742
S'esplora'
p743
a(dp744
S'name'
p745
S'Arduino Esplora'
p746
sS'vid'
p747
(dp748
g181
S'0x2341'
p749
sg73
S'0x2341'
p750
ssS'pid'
p751
(dp752
g181
S'0x803c'
p753
sg73
S'0x003c'
p754
ssS'upload'
p755
(dp756
S'protocol'
p757
S'avr109'
p758
sS'disable_flushing'
p759
S'true'
p760
sS'tool'
p761
S'avrdude'
p762
sS'maximum_data_size'
p763
S'2560'
p764
sS'maximum_size'
p765
S'28672'
p766
sS'use_1200bps_touch'
p767
S'true'
p768
sS'speed'
p769
S'57600'
p770
sS'wait_for_upload_port'
p771
S'true'
p772
ssS'build'
p773
(dp774
S'core'
p775
S'arduino'
p776
sS'f_cpu'
p777
S'16000000L'
p778
sS'vid'
p779
S'0x2341'
p780
sS'usb_product'
p781
S'"Arduino Esplora"'
p782
sS'pid'
p783
S'0x803c'
p784
sS'extra_flags'
p785
S'{build.usb_flags}'
p786
sS'board'
p787
S'AVR_ESPLORA'
p788
sS'mcu'
p789
S'atmega32u4'
p790
sS'variant'
p791
S'leonardo'
p792
ssg116
S'/usr/local/share/arduino/hardware/arduino/avr'
p793
sS'bootloader'
p794
(dp795
S'extended_fuses'
p796
S'0xcb'
p797
sS'high_fuses'
p798
S'0xd8'
p799
sS'low_fuses'
p800
S'0xff'
p801
sS'lock_bits'
p802
S'0x2F'
p803
sS'tool'
p804
S'avrdude'
p805
sS'file'
p806
S'caterina/Caterina-Esplora.hex'
p807
sS'unlock_bits'
p808
S'0x3F'
p809
ssaa(lp810
S'mini'
p811
a(dp812
S'name'
p813
S'Arduino Mini'
p814
sS'menu'
p815
(dp816
S'cpu'
p817
(dp818
S'atmega168'
p819
(dp820
S'bootloader'
p821
(dp822
S'extended_fuses'
p823
S'0x00'
p824
sS'high_fuses'
p825
S'0xdd'
p826
sS'file'
p827
S'atmega/ATmegaBOOT_168_ng.hex'
p828
ssS'upload'
p829
(dp830
S'maximum_size'
p831
S'14336'
p832
sS'speed'
p833
S'19200'
p834
sS'maximum_data_size'
p835
S'1024'
p836
ssg326
S'ATmega168'
p837
sS'build'
p838
(dp839
S'mcu'
p840
S'atmega168'
p841
sssS'atmega328'
p842
(dp843
S'bootloader'
p844
(dp845
S'extended_fuses'
p846
S'0x05'
p847
sS'high_fuses'
p848
S'0xd8'
p849
sS'file'
p850
S'optiboot/optiboot_atmega328-Mini.hex'
p851
ssS'upload'
p852
(dp853
S'maximum_size'
p854
S'28672'
p855
sS'speed'
p856
S'115200'
p857
sS'maximum_data_size'
p858
S'2048'
p859
ssg326
S'ATmega328'
p860
sS'build'
p861
(dp862
S'mcu'
p863
S'atmega328p'
p864
sssssS'upload'
p865
(dp866
S'tool'
p867
S'avrdude'
p868
sS'protocol'
p869
S'arduino'
p870
ssS'build'
p871
(dp872
S'core'
p873
S'arduino'
p874
sS'f_cpu'
p875
S'16000000L'
p876
sS'board'
p877
S'AVR_MINI'
p878
sS'variant'
p879
S'eightanaloginputs'
p880
ssg116
S'/usr/local/share/arduino/hardware/arduino/avr'
p881
sS'bootloader'
p882
(dp883
S'low_fuses'
p884
S'0xff'
p885
sS'lock_bits'
p886
S'0x0F'
p887
sS'tool'
p888
S'avrdude'
p889
sS'unlock_bits'
p890
S'0x3F'
p891
ssaa(lp892
S'ethernet'
p893
a(dp894
g116
S'/usr/local/share/arduino/hardware/arduino/avr'
p895
sS'bootloader'
p896
(dp897
S'extended_fuses'
p898
S'0x05'
p899
sS'high_fuses'
p900
S'0xde'
p901
sS'low_fuses'
p902
S'0xff'
p903
sS'lock_bits'
p904
S'0x0F'
p905
sS'tool'
p906
S'avrdude'
p907
sS'file'
p908
S'optiboot/optiboot_atmega328.hex'
p909
sS'unlock_bits'
p910
S'0x3F'
p911
ssS'build'
p912
(dp913
S'variant'
p914
S'ethernet'
p915
sS'mcu'
p916
S'atmega328p'
p917
sS'f_cpu'
p918
S'16000000L'
p919
sS'board'
p920
S'AVR_ETHERNET'
p921
sS'core'
p922
S'arduino'
p923
ssS'name'
p924
S'Arduino Ethernet'
p925
sS'upload'
p926
(dp927
S'protocol'
p928
S'arduino'
p929
sS'tool'
p930
S'avrdude'
p931
sS'speed'
p932
S'115200'
p933
sS'maximum_size'
p934
S'32256'
p935
sS'maximum_data_size'
p936
S'2048'
p937
ssaa(lp938
S'fio'
p939
a(dp940
g116
S'/usr/local/share/arduino/hardware/arduino/avr'
p941
sS'bootloader'
p942
(dp943
S'extended_fuses'
p944
S'0x05'
p945
sS'high_fuses'
p946
S'0xDA'
p947
sS'low_fuses'
p948
S'0xFF'
p949
sS'lock_bits'
p950
S'0x0F'
p951
sS'tool'
p952
S'avrdude'
p953
sS'file'
p954
S'atmega/ATmegaBOOT_168_atmega328_pro_8MHz.hex'
p955
sS'unlock_bits'
p956
S'0x3F'
p957
ssS'build'
p958
(dp959
S'core'
p960
S'arduino'
p961
sS'mcu'
p962
S'atmega328p'
p963
sS'f_cpu'
p964
S'8000000L'
p965
sS'board'
p966
S'AVR_FIO'
p967
sS'variant'
p968
S'eightanaloginputs'
p969
ssS'name'
p970
S'Arduino Fio'
p971
sS'upload'
p972
(dp973
S'protocol'
p974
S'arduino'
p975
sS'tool'
p976
S'avrdude'
p977
sS'speed'
p978
S'57600'
p979
sS'maximum_size'
p980
S'30720'
p981
sS'maximum_data_size'
p982
S'2048'
p983
ssaa(lp984
S'bt'
p985
a(dp986
S'name'
p987
S'Arduino BT'
p988
sS'menu'
p989
(dp990
S'cpu'
p991
(dp992
S'atmega168'
p993
(dp994
S'bootloader'
p995
(dp996
S'extended_fuses'
p997
S'0x00'
p998
sS'high_fuses'
p999
S'0xdd'
p1000
sS'file'
p1001
S'bt/ATmegaBOOT_168.hex'
p1002
ssS'upload'
p1003
(dp1004
S'maximum_size'
p1005
S'14336'
p1006
sS'maximum_data_size'
p1007
S'1024'
p1008
ssg326
S'ATmega168'
p1009
sS'build'
p1010
(dp1011
S'mcu'
p1012
S'atmega168'
p1013
sssS'atmega328'
p1014
(dp1015
S'bootloader'
p1016
(dp1017
S'extended_fuses'
p1018
S'0x05'
p1019
sS'high_fuses'
p1020
S'0xd8'
p1021
sS'file'
p1022
S'bt/ATmegaBOOT_168_atmega328_bt.hex'
p1023
ssS'upload'
p1024
(dp1025
S'maximum_size'
p1026
S'28672'
p1027
sS'maximum_data_size'
p1028
S'2048'
p1029
ssg326
S'ATmega328'
p1030
sS'build'
p1031
(dp1032
S'mcu'
p1033
S'atmega328p'
p1034
sssssS'upload'
p1035
(dp1036
S'protocol'
p1037
S'arduino'
p1038
sS'tool'
p1039
S'avrdude'
p1040
sS'speed'
p1041
S'19200'
p1042
sS'disable_flushing'
p1043
S'true'
p1044
ssS'build'
p1045
(dp1046
S'core'
p1047
S'arduino'
p1048
sS'f_cpu'
p1049
S'16000000L'
p1050
sS'board'
p1051
S'AVR_BT'
p1052
sS'variant'
p1053
S'eightanaloginputs'
p1054
ssg116
S'/usr/local/share/arduino/hardware/arduino/avr'
p1055
sS'bootloader'
p1056
(dp1057
S'low_fuses'
p1058
S'0xff'
p1059
sS'lock_bits'
p1060
S'0x0F'
p1061
sS'tool'
p1062
S'avrdude'
p1063
sS'unlock_bits'
p1064
S'0x3F'
p1065
ssaa(lp1066
S'LilyPadUSB'
p1067
a(dp1068
g116
S'/usr/local/share/arduino/hardware/arduino/avr'
p1069
sS'bootloader'
p1070
(dp1071
S'extended_fuses'
p1072
S'0xce'
p1073
sS'high_fuses'
p1074
S'0xd8'
p1075
sS'low_fuses'
p1076
S'0xff'
p1077
sS'lock_bits'
p1078
S'0x2F'
p1079
sS'tool'
p1080
S'avrdude'
p1081
sS'file'
p1082
S'caterina-LilyPadUSB/Caterina-LilyPadUSB.hex'
p1083
sS'unlock_bits'
p1084
S'0x3F'
p1085
ssS'build'
p1086
(dp1087
S'core'
p1088
S'arduino'
p1089
sS'f_cpu'
p1090
S'8000000L'
p1091
sS'vid'
p1092
S'0x1B4F'
p1093
sS'usb_product'
p1094
S'"LilyPad USB"'
p1095
sS'pid'
p1096
S'0x9208'
p1097
sS'extra_flags'
p1098
S'{build.usb_flags}'
p1099
sS'board'
p1100
S'AVR_LILYPAD_USB'
p1101
sS'mcu'
p1102
S'atmega32u4'
p1103
sS'variant'
p1104
S'leonardo'
p1105
ssS'name'
p1106
S'LilyPad Arduino USB'
p1107
sS'upload'
p1108
(dp1109
S'protocol'
p1110
S'avr109'
p1111
sS'disable_flushing'
p1112
S'true'
p1113
sS'tool'
p1114
S'avrdude'
p1115
sS'maximum_data_size'
p1116
S'2560'
p1117
sS'maximum_size'
p1118
S'28672'
p1119
sS'use_1200bps_touch'
p1120
S'true'
p1121
sS'speed'
p1122
S'57600'
p1123
sS'wait_for_upload_port'
p1124
S'true'
p1125
ssaa(lp1126
S'lilypad'
p1127
a(dp1128
S'name'
p1129
S'LilyPad Arduino'
p1130
sS'menu'
p1131
(dp1132
S'cpu'
p1133
(dp1134
S'atmega168'
p1135
(dp1136
S'bootloader'
p1137
(dp1138
S'low_fuses'
p1139
S'0xe2'
p1140
sS'extended_fuses'
p1141
S'0x00'
p1142
sS'high_fuses'
p1143
S'0xdd'
p1144
sS'file'
p1145
S'lilypad/LilyPadBOOT_168.hex'
p1146
ssS'upload'
p1147
(dp1148
S'maximum_size'
p1149
S'14336'
p1150
sS'speed'
p1151
S'19200'
p1152
sS'maximum_data_size'
p1153
S'1024'
p1154
ssg326
S'ATmega168'
p1155
sS'build'
p1156
(dp1157
S'mcu'
p1158
S'atmega168'
p1159
sssS'atmega328'
p1160
(dp1161
S'bootloader'
p1162
(dp1163
S'low_fuses'
p1164
S'0xFF'
p1165
sS'extended_fuses'
p1166
S'0x05'
p1167
sS'high_fuses'
p1168
S'0xDA'
p1169
sS'file'
p1170
S'atmega/ATmegaBOOT_168_atmega328_pro_8MHz.hex'
p1171
ssS'upload'
p1172
(dp1173
S'maximum_size'
p1174
S'30720'
p1175
sS'speed'
p1176
S'57600'
p1177
sS'maximum_data_size'
p1178
S'2048'
p1179
ssg326
S'ATmega328'
p1180
sS'build'
p1181
(dp1182
S'mcu'
p1183
S'atmega328p'
p1184
sssssS'upload'
p1185
(dp1186
S'tool'
p1187
S'avrdude'
p1188
sS'protocol'
p1189
S'arduino'
p1190
ssS'build'
p1191
(dp1192
S'core'
p1193
S'arduino'
p1194
sS'f_cpu'
p1195
S'8000000L'
p1196
sS'board'
p1197
S'AVR_LILYPAD'
p1198
sS'variant'
p1199
S'standard'
p1200
ssg116
S'/usr/local/share/arduino/hardware/arduino/avr'
p1201
sS'bootloader'
p1202
(dp1203
S'lock_bits'
p1204
S'0x0F'
p1205
sS'tool'
p1206
S'avrdude'
p1207
sS'unlock_bits'
p1208
S'0x3F'
p1209
ssaa(lp1210
S'pro'
p1211
a(dp1212
S'name'
p1213
S'Arduino Pro or Pro Mini'
p1214
sS'menu'
p1215
(dp1216
S'cpu'
p1217
(dp1218
S'16MHzatmega328'
p1219
(dp1220
S'bootloader'
p1221
(dp1222
S'low_fuses'
p1223
S'0xFF'
p1224
sS'extended_fuses'
p1225
S'0x05'
p1226
sS'high_fuses'
p1227
S'0xDA'
p1228
sS'file'
p1229
S'atmega/ATmegaBOOT_168_atmega328.hex'
p1230
ssS'upload'
p1231
(dp1232
S'maximum_size'
p1233
S'30720'
p1234
sS'speed'
p1235
S'57600'
p1236
sS'maximum_data_size'
p1237
S'2048'
p1238
ssg326
S'ATmega328 (5V, 16 MHz)'
p1239
sS'build'
p1240
(dp1241
S'mcu'
p1242
S'atmega328p'
p1243
sS'f_cpu'
p1244
S'16000000L'
p1245
sssS'8MHzatmega328'
p1246
(dp1247
S'bootloader'
p1248
(dp1249
S'low_fuses'
p1250
S'0xFF'
p1251
sS'extended_fuses'
p1252
S'0x05'
p1253
sS'high_fuses'
p1254
S'0xDA'
p1255
sS'file'
p1256
S'atmega/ATmegaBOOT_168_atmega328_pro_8MHz.hex'
p1257
ssS'upload'
p1258
(dp1259
S'maximum_size'
p1260
S'30720'
p1261
sS'speed'
p1262
S'57600'
p1263
sS'maximum_data_size'
p1264
S'2048'
p1265
ssg326
S'ATmega328 (3.3V, 8 MHz)'
p1266
sS'build'
p1267
(dp1268
S'mcu'
p1269
S'atmega328p'
p1270
sS'f_cpu'
p1271
S'8000000L'
p1272
sssS'8MHzatmega168'
p1273
(dp1274
S'bootloader'
p1275
(dp1276
S'low_fuses'
p1277
S'0xc6'
p1278
sS'extended_fuses'
p1279
S'0x00'
p1280
sS'high_fuses'
p1281
S'0xdd'
p1282
sS'file'
p1283
S'atmega/ATmegaBOOT_168_pro_8MHz.hex'
p1284
ssS'upload'
p1285
(dp1286
S'maximum_size'
p1287
S'14336'
p1288
sS'speed'
p1289
S'19200'
p1290
sS'maximum_data_size'
p1291
S'1024'
p1292
ssg326
S'ATmega168 (3.3V, 8 MHz)'
p1293
sS'build'
p1294
(dp1295
S'mcu'
p1296
S'atmega168'
p1297
sS'f_cpu'
p1298
S'8000000L'
p1299
sssS'16MHzatmega168'
p1300
(dp1301
S'bootloader'
p1302
(dp1303
S'low_fuses'
p1304
S'0xff'
p1305
sS'extended_fuses'
p1306
S'0x00'
p1307
sS'high_fuses'
p1308
S'0xdd'
p1309
sS'file'
p1310
S'atmega/ATmegaBOOT_168_diecimila.hex'
p1311
ssS'upload'
p1312
(dp1313
S'maximum_size'
p1314
S'14336'
p1315
sS'speed'
p1316
S'19200'
p1317
sS'maximum_data_size'
p1318
S'1024'
p1319
ssg326
S'ATmega168 (5V, 16 MHz)'
p1320
sS'build'
p1321
(dp1322
S'mcu'
p1323
S'atmega168'
p1324
sS'f_cpu'
p1325
S'16000000L'
p1326
sssssS'upload'
p1327
(dp1328
S'tool'
p1329
S'avrdude'
p1330
sS'protocol'
p1331
S'arduino'
p1332
ssS'build'
p1333
(dp1334
S'core'
p1335
S'arduino'
p1336
sS'variant'
p1337
S'eightanaloginputs'
p1338
sS'board'
p1339
S'AVR_PRO'
p1340
ssg116
S'/usr/local/share/arduino/hardware/arduino/avr'
p1341
sS'bootloader'
p1342
(dp1343
S'lock_bits'
p1344
S'0x0F'
p1345
sS'tool'
p1346
S'avrdude'
p1347
sS'unlock_bits'
p1348
S'0x3F'
p1349
ssaa(lp1350
S'atmegang'
p1351
a(dp1352
S'name'
p1353
S'Arduino NG or older'
p1354
sS'menu'
p1355
(dp1356
S'cpu'
p1357
(dp1358
S'atmega168'
p1359
(dp1360
S'bootloader'
p1361
(dp1362
S'low_fuses'
p1363
S'0xff'
p1364
sS'extended_fuses'
p1365
S'0x00'
p1366
sS'high_fuses'
p1367
S'0xdd'
p1368
sS'file'
p1369
S'atmega/ATmegaBOOT_168_ng.hex'
p1370
ssS'upload'
p1371
(dp1372
S'maximum_size'
p1373
S'14336'
p1374
sS'maximum_data_size'
p1375
S'1024'
p1376
ssg326
S'ATmega168'
p1377
sS'build'
p1378
(dp1379
S'mcu'
p1380
S'atmega168'
p1381
sssS'atmega8'
p1382
(dp1383
S'bootloader'
p1384
(dp1385
S'low_fuses'
p1386
S'0xdf'
p1387
sS'high_fuses'
p1388
S'0xca'
p1389
sS'file'
p1390
S'atmega8/ATmegaBOOT-prod-firmware-2009-11-07.hex'
p1391
ssS'upload'
p1392
(dp1393
S'maximum_size'
p1394
S'7168'
p1395
sS'maximum_data_size'
p1396
S'1024'
p1397
ssg326
S'ATmega8'
p1398
sS'build'
p1399
(dp1400
S'mcu'
p1401
S'atmega8'
p1402
sssssS'upload'
p1403
(dp1404
S'protocol'
p1405
S'arduino'
p1406
sS'tool'
p1407
S'avrdude'
p1408
sS'speed'
p1409
S'19200'
p1410
ssS'build'
p1411
(dp1412
S'core'
p1413
S'arduino'
p1414
sS'mcu'
p1415
S'atmegang'
p1416
sS'f_cpu'
p1417
S'16000000L'
p1418
sS'board'
p1419
S'AVR_NG'
p1420
sS'variant'
p1421
S'standard'
p1422
ssg116
S'/usr/local/share/arduino/hardware/arduino/avr'
p1423
sS'bootloader'
p1424
(dp1425
S'lock_bits'
p1426
S'0x0F'
p1427
sS'tool'
p1428
S'avrdude'
p1429
sS'unlock_bits'
p1430
S'0x3F'
p1431
ssaa(lp1432
S'robotControl'
p1433
a(dp1434
g116
S'/usr/local/share/arduino/hardware/arduino/avr'
p1435
sS'bootloader'
p1436
(dp1437
S'extended_fuses'
p1438
S'0xcb'
p1439
sS'high_fuses'
p1440
S'0xd8'
p1441
sS'low_fuses'
p1442
S'0xff'
p1443
sS'lock_bits'
p1444
S'0x2F'
p1445
sS'tool'
p1446
S'avrdude'
p1447
sS'file'
p1448
S'caterina-Arduino_Robot/Caterina-Robot-Control.hex'
p1449
sS'unlock_bits'
p1450
S'0x3F'
p1451
ssS'build'
p1452
(dp1453
S'core'
p1454
S'arduino'
p1455
sS'f_cpu'
p1456
S'16000000L'
p1457
sS'vid'
p1458
S'0x2341'
p1459
sS'usb_product'
p1460
S'"Robot Control"'
p1461
sS'pid'
p1462
S'0x8038'
p1463
sS'extra_flags'
p1464
S'{build.usb_flags}'
p1465
sS'board'
p1466
S'AVR_ROBOT_CONTROL'
p1467
sS'mcu'
p1468
S'atmega32u4'
p1469
sS'variant'
p1470
S'robot_control'
p1471
ssS'name'
p1472
S'Arduino Robot Control'
p1473
sS'upload'
p1474
(dp1475
S'protocol'
p1476
S'avr109'
p1477
sS'disable_flushing'
p1478
S'true'
p1479
sS'tool'
p1480
S'avrdude'
p1481
sS'maximum_data_size'
p1482
S'2560'
p1483
sS'maximum_size'
p1484
S'28672'
p1485
sS'use_1200bps_touch'
p1486
S'true'
p1487
sS'speed'
p1488
S'57600'
p1489
sS'wait_for_upload_port'
p1490
S'true'
p1491
ssaa(lp1492
S'robotMotor'
p1493
a(dp1494
g116
S'/usr/local/share/arduino/hardware/arduino/avr'
p1495
sS'bootloader'
p1496
(dp1497
S'extended_fuses'
p1498
S'0xcb'
p1499
sS'high_fuses'
p1500
S'0xd8'
p1501
sS'low_fuses'
p1502
S'0xff'
p1503
sS'lock_bits'
p1504
S'0x2F'
p1505
sS'tool'
p1506
S'avrdude'
p1507
sS'file'
p1508
S'caterina-Arduino_Robot/Caterina-Robot-Motor.hex'
p1509
sS'unlock_bits'
p1510
S'0x3F'
p1511
ssS'build'
p1512
(dp1513
S'core'
p1514
S'arduino'
p1515
sS'f_cpu'
p1516
S'16000000L'
p1517
sS'vid'
p1518
S'0x2341'
p1519
sS'usb_product'
p1520
S'"Robot Motor"'
p1521
sS'pid'
p1522
S'0x8039'
p1523
sS'extra_flags'
p1524
S'{build.usb_flags}'
p1525
sS'board'
p1526
S'AVR_ROBOT_MOTOR'
p1527
sS'mcu'
p1528
S'atmega32u4'
p1529
sS'variant'
p1530
S'robot_motor'
p1531
ssS'name'
p1532
S'Arduino Robot Motor'
p1533
sS'upload'
p1534
(dp1535
S'protocol'
p1536
S'avr109'
p1537
sS'disable_flushing'
p1538
S'true'
p1539
sS'tool'
p1540
S'avrdude'
p1541
sS'maximum_data_size'
p1542
S'2560'
p1543
sS'maximum_size'
p1544
S'28672'
p1545
sS'use_1200bps_touch'
p1546
S'true'
p1547
sS'speed'
p1548
S'57600'
p1549
sS'wait_for_upload_port'
p1550
S'true'
p1551
ssaatp1552
Rp1553
(dp1554
S'default'
p1555
S'uno'
p1556
sbtp1557
a(S'used_libs'
p1558
(lp1559
S'lib/SeeedTouchScreen'
p1560
aS'lib/TFTv2'
p1561
aS'lib/SPI'
p1562
aS'/usr/local/share/arduino/hardware/arduino/avr/cores/arduino'
p1563
atp1564
a(S'make'
p1565
S'/usr/bin/make'
p1566
tp1567
a(S'build_dir'
p1568
S'.build/uno'
p1569
tp1570
a(S'cc'
p1571
S'/usr/local/share/arduino/hardware/tools/avr/bin/avr-gcc'
p1572
tp1573
a(S'cflags'
p1574
g2
(g3
g4
(lp1575
tp1576
Rp1577
tp1578
a(S'cxxflags'
p1579
g2
(g3
g4
(lp1580
S'-fno-exceptions'
p1581
atp1582
Rp1583
tp1584
a(S'arduino_variants_dir'
p1585
S'/usr/local/share/arduino/hardware/arduino/avr/variants'
p1586
tp1587
a(S'stty'
p1588
S'/bin/stty'
p1589
tp1590
a(S'version.txt'
p1591
S'/usr/local/share/arduino/lib/version.txt'
p1592
tp1593
a(S'arduino_core_dir'
p1594
g1563
tp1595
a(S'boards.txt'
p1596
(lp1597
S'/usr/local/share/arduino/hardware/arduino/sam/boards.txt'
p1598
aS'/usr/local/share/arduino/hardware/arduino/avr/boards.txt'
p1599
atp1600
a(S'avrdude.conf'
p1601
S'/usr/local/share/arduino/hardware/tools/avr/etc/avrdude.conf'
p1602
tp1603
a(g43
g2
(g3
g4
(lp1604
S'.build/uno/src/dependencies.d'
p1605
aS'.build/uno/SeeedTouchScreen/dependencies.d'
p1606
aS'.build/uno/TFTv2/dependencies.d'
p1607
aS'.build/uno/SPI/dependencies.d'
p1608
aS'.build/uno/arduino/dependencies.d'
p1609
atp1610
Rp1611
tp1612
a.