(lp0
(S'cppflags'
p1
ccopy_reg
_reconstructor
p2
(cino.utils
SpaceList
p3
c__builtin__
list
p4
(lp5
S'-mmcu=atmega328p'
p6
aS'-DF_CPU=16000000L'
p7
aS'-DARDUINO=160'
p8
aS'-I/usr/local/share/arduino/hardware/arduino/avr/cores/arduino'
p9
aS'-ffunction-sections'
p10
aS'-fdata-sections'
p11
aS'-g'
p12
aS'-Os'
p13
aS'-w'
p14
aS'-I/usr/local/share/arduino/hardware/arduino/avr/variants/standard'
p15
aS'-Ilib/Adafruit_TFTLCD'
p16
aS'-Ilib/Adafruit_TFTLCD/bitmaps'
p17
aS'-Ilib/TouchScreen'
p18
aS'-Ilib/Adafruit-GFX'
p19
aS'-I/usr/local/share/arduino/hardware/arduino/avr/cores/arduino'
p20
atp21
Rp22
tp23
a(S'cxx'
p24
S'/usr/local/share/arduino/hardware/tools/avr/bin/avr-g++'
p25
tp26
a(S'build_dir'
p27
S'.build/uno'
p28
tp29
a(S'avrdude'
p30
S'/usr/local/share/arduino/hardware/tools/avr/bin/avrdude'
p31
tp32
a(S'ar'
p33
S'/usr/local/share/arduino/hardware/tools/avr/bin/avr-ar'
p34
tp35
a(S'names'
p36
(dp37
S'cpp'
p38
S'%s.cpp'
p39
sS'obj'
p40
S'%s.o'
p41
sS'deps'
p42
S'%s.d'
p43
sS'lib'
p44
S'lib%s.a'
p45
stp46
a(S'ldflags'
p47
g2
(g3
g4
(lp48
g6
aS'-Wl,-Os'
p49
aS'-Wl,--gc-sections'
p50
atp51
Rp52
tp53
a(S'arduino_lib_version'
p54
g2
(cino.environment
Version
p55
c__builtin__
tuple
p56
(I1
I6
I0
tp57
tp58
Rp59
tp60
a(S'objcopy'
p61
S'/usr/local/share/arduino/hardware/tools/avr/bin/avr-objcopy'
p62
tp63
a(S'board_models'
p64
cino.environment
BoardModels
p65
((lp66
(lp67
S'arduino_due_x_dbg'
p68
a(dp69
S'name'
p70
S'Arduino Due (Programming Port)'
p71
sS'vid'
p72
(dp73
S'0'
p74
S'0x2341'
p75
ssS'pid'
p76
(dp77
g74
S'0x003d'
p78
ssS'upload'
p79
(dp80
S'protocol'
p81
S'sam-ba'
p82
sS'wait_for_upload_port'
p83
S'false'
p84
sS'tool'
p85
S'bossac'
p86
sS'native_usb'
p87
S'false'
p88
sS'maximum_size'
p89
S'524288'
p90
sS'use_1200bps_touch'
p91
S'true'
p92
ssS'build'
p93
(dp94
S'core'
p95
S'arduino'
p96
sS'f_cpu'
p97
S'84000000L'
p98
sS'vid'
p99
S'0x2341'
p100
sS'pid'
p101
S'0x003e'
p102
sS'variant'
p103
S'arduino_due_x'
p104
sS'extra_flags'
p105
S'-D__SAM3X8E__ -mthumb {build.usb_flags}'
p106
sS'variant_system_lib'
p107
S'libsam_sam3x8e_gcc_rel.a'
p108
sS'usb_product'
p109
S'"Arduino Due"'
p110
sS'board'
p111
S'SAM_DUE'
p112
sS'ldscript'
p113
S'linker_scripts/gcc/flash.ld'
p114
sS'mcu'
p115
S'cortex-m3'
p116
ssS'_coredir'
p117
S'/usr/local/share/arduino/hardware/arduino/sam'
p118
saa(lp119
S'arduino_due_x'
p120
a(dp121
S'name'
p122
S'Arduino Due (Native USB Port)'
p123
sS'vid'
p124
(dp125
g74
S'0x2341'
p126
ssS'pid'
p127
(dp128
g74
S'0x003e'
p129
ssS'upload'
p130
(dp131
S'protocol'
p132
S'sam-ba'
p133
sS'wait_for_upload_port'
p134
S'true'
p135
sS'tool'
p136
S'bossac'
p137
sS'native_usb'
p138
S'true'
p139
sS'maximum_size'
p140
S'524288'
p141
sS'use_1200bps_touch'
p142
S'true'
p143
ssS'build'
p144
(dp145
S'core'
p146
S'arduino'
p147
sS'f_cpu'
p148
S'84000000L'
p149
sS'vid'
p150
S'0x2341'
p151
sS'pid'
p152
S'0x003e'
p153
sS'variant'
p154
S'arduino_due_x'
p155
sS'extra_flags'
p156
S'-D__SAM3X8E__ -mthumb {build.usb_flags}'
p157
sS'variant_system_lib'
p158
S'libsam_sam3x8e_gcc_rel.a'
p159
sS'usb_product'
p160
S'"Arduino Due"'
p161
sS'board'
p162
S'SAM_DUE'
p163
sS'ldscript'
p164
S'linker_scripts/gcc/flash.ld'
p165
sS'mcu'
p166
S'cortex-m3'
p167
ssg117
S'/usr/local/share/arduino/hardware/arduino/sam'
p168
saa(lp169
S'menu'
p170
a(dp171
S'cpu'
p172
S'Processor'
p173
sg117
S'/usr/local/share/arduino/hardware/arduino/avr'
p174
saa(lp175
S'yun'
p176
a(dp177
S'name'
p178
S'Arduino Y\xc3\xban'
p179
sS'vid'
p180
(dp181
S'1'
p182
S'0x2341'
p183
sg74
S'0x2341'
p184
ssS'pid'
p185
(dp186
g182
S'0x8041'
p187
sg74
S'0x0041'
p188
ssS'upload'
p189
(dp190
S'protocol'
p191
S'avr109'
p192
sS'disable_flushing'
p193
S'true'
p194
sS'tool'
p195
S'avrdude'
p196
sS'maximum_data_size'
p197
S'2560'
p198
sS'via_ssh'
p199
S'true'
p200
sS'maximum_size'
p201
S'28672'
p202
sS'use_1200bps_touch'
p203
S'true'
p204
sS'speed'
p205
S'57600'
p206
sS'wait_for_upload_port'
p207
S'true'
p208
ssS'build'
p209
(dp210
S'core'
p211
S'arduino'
p212
sS'f_cpu'
p213
S'16000000L'
p214
sS'vid'
p215
S'0x2341'
p216
sS'usb_product'
p217
S'"Arduino Yun"'
p218
sS'pid'
p219
S'0x8041'
p220
sS'extra_flags'
p221
S'{build.usb_flags}'
p222
sS'board'
p223
S'AVR_YUN'
p224
sS'mcu'
p225
S'atmega32u4'
p226
sS'variant'
p227
S'yun'
p228
ssg117
S'/usr/local/share/arduino/hardware/arduino/avr'
p229
sS'bootloader'
p230
(dp231
S'extended_fuses'
p232
S'0xfb'
p233
sS'high_fuses'
p234
S'0xd8'
p235
sS'low_fuses'
p236
S'0xff'
p237
sS'lock_bits'
p238
S'0x2F'
p239
sS'tool'
p240
S'avrdude'
p241
sS'file'
p242
S'caterina/Caterina-Yun.hex'
p243
sS'unlock_bits'
p244
S'0x3F'
p245
ssaa(lp246
S'uno'
p247
a(dp248
S'name'
p249
S'Arduino Uno'
p250
sS'vid'
p251
(dp252
g182
S'0x2341'
p253
sg74
S'0x2341'
p254
ssS'pid'
p255
(dp256
g182
S'0x0001'
p257
sg74
S'0x0043'
p258
ssS'upload'
p259
(dp260
S'speed'
p261
S'115200'
p262
sS'tool'
p263
S'avrdude'
p264
sS'protocol'
p265
S'arduino'
p266
sS'maximum_size'
p267
S'32256'
p268
sS'maximum_data_size'
p269
S'2048'
p270
ssS'build'
p271
(dp272
S'core'
p273
S'arduino'
p274
sS'mcu'
p275
S'atmega328p'
p276
sS'f_cpu'
p277
S'16000000L'
p278
sS'board'
p279
S'AVR_UNO'
p280
sS'variant'
p281
S'standard'
p282
ssg117
S'/usr/local/share/arduino/hardware/arduino/avr'
p283
sS'bootloader'
p284
(dp285
S'extended_fuses'
p286
S'0x05'
p287
sS'high_fuses'
p288
S'0xDE'
p289
sS'low_fuses'
p290
S'0xFF'
p291
sS'lock_bits'
p292
S'0x0F'
p293
sS'tool'
p294
S'avrdude'
p295
sS'file'
p296
S'optiboot/optiboot_atmega328.hex'
p297
sS'unlock_bits'
p298
S'0x3F'
p299
ssaa(lp300
S'diecimila'
p301
a(dp302
S'name'
p303
S'Arduino Duemilanove or Diecimila'
p304
sS'menu'
p305
(dp306
S'cpu'
p307
(dp308
S'atmega168'
p309
(dp310
S'bootloader'
p311
(dp312
S'extended_fuses'
p313
S'0x00'
p314
sS'high_fuses'
p315
S'0xdd'
p316
sS'file'
p317
S'atmega/ATmegaBOOT_168_diecimila.hex'
p318
ssS'upload'
p319
(dp320
S'maximum_size'
p321
S'14336'
p322
sS'speed'
p323
S'19200'
p324
sS'maximum_data_size'
p325
S'1024'
p326
ssS'_'
p327
S'ATmega168'
p328
sS'build'
p329
(dp330
S'mcu'
p331
S'atmega168'
p332
sssS'atmega328'
p333
(dp334
S'bootloader'
p335
(dp336
S'extended_fuses'
p337
S'0x05'
p338
sS'high_fuses'
p339
S'0xDA'
p340
sS'file'
p341
S'atmega/ATmegaBOOT_168_atmega328.hex'
p342
ssS'upload'
p343
(dp344
S'maximum_size'
p345
S'30720'
p346
sS'speed'
p347
S'57600'
p348
sS'maximum_data_size'
p349
S'2048'
p350
ssg327
S'ATmega328'
p351
sS'build'
p352
(dp353
S'mcu'
p354
S'atmega328p'
p355
sssssS'upload'
p356
(dp357
S'tool'
p358
S'avrdude'
p359
sS'protocol'
p360
S'arduino'
p361
ssS'build'
p362
(dp363
S'core'
p364
S'arduino'
p365
sS'f_cpu'
p366
S'16000000L'
p367
sS'board'
p368
S'AVR_DUEMILANOVE'
p369
sS'variant'
p370
S'standard'
p371
ssg117
S'/usr/local/share/arduino/hardware/arduino/avr'
p372
sS'bootloader'
p373
(dp374
S'low_fuses'
p375
S'0xFF'
p376
sS'lock_bits'
p377
S'0x0F'
p378
sS'tool'
p379
S'avrdude'
p380
sS'unlock_bits'
p381
S'0x3F'
p382
ssaa(lp383
S'nano'
p384
a(dp385
S'name'
p386
S'Arduino Nano'
p387
sS'menu'
p388
(dp389
S'cpu'
p390
(dp391
S'atmega168'
p392
(dp393
S'bootloader'
p394
(dp395
S'low_fuses'
p396
S'0xff'
p397
sS'extended_fuses'
p398
S'0x00'
p399
sS'high_fuses'
p400
S'0xdd'
p401
sS'file'
p402
S'atmega/ATmegaBOOT_168_diecimila.hex'
p403
ssS'upload'
p404
(dp405
S'maximum_size'
p406
S'14336'
p407
sS'speed'
p408
S'19200'
p409
sS'maximum_data_size'
p410
S'1024'
p411
ssg327
S'ATmega168'
p412
sS'build'
p413
(dp414
S'mcu'
p415
S'atmega168'
p416
sssS'atmega328'
p417
(dp418
S'bootloader'
p419
(dp420
S'low_fuses'
p421
S'0xFF'
p422
sS'extended_fuses'
p423
S'0x05'
p424
sS'high_fuses'
p425
S'0xDA'
p426
sS'file'
p427
S'atmega/ATmegaBOOT_168_atmega328.hex'
p428
ssS'upload'
p429
(dp430
S'maximum_size'
p431
S'30720'
p432
sS'speed'
p433
S'57600'
p434
sS'maximum_data_size'
p435
S'2048'
p436
ssg327
S'ATmega328'
p437
sS'build'
p438
(dp439
S'mcu'
p440
S'atmega328p'
p441
sssssS'upload'
p442
(dp443
S'tool'
p444
S'avrdude'
p445
sS'protocol'
p446
S'arduino'
p447
ssS'build'
p448
(dp449
S'core'
p450
S'arduino'
p451
sS'f_cpu'
p452
S'16000000L'
p453
sS'board'
p454
S'AVR_NANO'
p455
sS'variant'
p456
S'eightanaloginputs'
p457
ssg117
S'/usr/local/share/arduino/hardware/arduino/avr'
p458
sS'bootloader'
p459
(dp460
S'lock_bits'
p461
S'0x0F'
p462
sS'tool'
p463
S'avrdude'
p464
sS'unlock_bits'
p465
S'0x3F'
p466
ssaa(lp467
S'mega'
p468
a(dp469
S'name'
p470
S'Arduino Mega or Mega 2560'
p471
sS'vid'
p472
(dp473
g182
S'0x2341'
p474
sg74
S'0x2341'
p475
ssS'menu'
p476
(dp477
S'cpu'
p478
(dp479
S'atmega1280'
p480
(dp481
S'bootloader'
p482
(dp483
S'extended_fuses'
p484
S'0xF5'
p485
sS'high_fuses'
p486
S'0xDA'
p487
sS'file'
p488
S'atmega/ATmegaBOOT_168_atmega1280.hex'
p489
ssS'upload'
p490
(dp491
S'speed'
p492
S'57600'
p493
sS'maximum_size'
p494
S'126976'
p495
sS'protocol'
p496
S'arduino'
p497
ssg327
S'ATmega1280'
p498
sS'build'
p499
(dp500
S'mcu'
p501
S'atmega1280'
p502
sS'board'
p503
S'AVR_MEGA'
p504
sssS'atmega2560'
p505
(dp506
S'bootloader'
p507
(dp508
S'extended_fuses'
p509
S'0xFD'
p510
sS'high_fuses'
p511
S'0xD8'
p512
sS'file'
p513
S'stk500v2/stk500boot_v2_mega2560.hex'
p514
ssS'upload'
p515
(dp516
S'speed'
p517
S'115200'
p518
sS'maximum_size'
p519
S'253952'
p520
sS'protocol'
p521
S'wiring'
p522
ssg327
S'ATmega2560 (Mega 2560)'
p523
sS'build'
p524
(dp525
S'mcu'
p526
S'atmega2560'
p527
sS'board'
p528
S'AVR_MEGA2560'
p529
sssssS'pid'
p530
(dp531
g182
S'0x0042'
p532
sg74
S'0x0010'
p533
ssS'upload'
p534
(dp535
S'tool'
p536
S'avrdude'
p537
sS'maximum_data_size'
p538
S'8192'
p539
ssS'build'
p540
(dp541
S'core'
p542
S'arduino'
p543
sS'f_cpu'
p544
S'16000000L'
p545
sS'board'
p546
S'AVR_MEGA2560'
p547
sS'variant'
p548
S'mega'
p549
ssg117
S'/usr/local/share/arduino/hardware/arduino/avr'
p550
sS'bootloader'
p551
(dp552
S'low_fuses'
p553
S'0xFF'
p554
sS'lock_bits'
p555
S'0x0F'
p556
sS'tool'
p557
S'avrdude'
p558
sS'unlock_bits'
p559
S'0x3F'
p560
ssaa(lp561
S'megaADK'
p562
a(dp563
S'name'
p564
S'Arduino Mega ADK'
p565
sS'vid'
p566
(dp567
g182
S'0x2341'
p568
sg74
S'0x2341'
p569
ssS'pid'
p570
(dp571
g182
S'0x0044'
p572
sg74
S'0x003f'
p573
ssS'upload'
p574
(dp575
S'speed'
p576
S'115200'
p577
sS'tool'
p578
S'avrdude'
p579
sS'protocol'
p580
S'wiring'
p581
sS'maximum_size'
p582
S'253952'
p583
sS'maximum_data_size'
p584
S'8192'
p585
ssS'build'
p586
(dp587
S'core'
p588
S'arduino'
p589
sS'mcu'
p590
S'atmega2560'
p591
sS'f_cpu'
p592
S'16000000L'
p593
sS'board'
p594
S'AVR_ADK'
p595
sS'variant'
p596
S'mega'
p597
ssg117
S'/usr/local/share/arduino/hardware/arduino/avr'
p598
sS'bootloader'
p599
(dp600
S'extended_fuses'
p601
S'0xFD'
p602
sS'high_fuses'
p603
S'0xD8'
p604
sS'low_fuses'
p605
S'0xFF'
p606
sS'lock_bits'
p607
S'0x0F'
p608
sS'tool'
p609
S'avrdude'
p610
sS'file'
p611
S'stk500v2/stk500boot_v2_mega2560.hex'
p612
sS'unlock_bits'
p613
S'0x3F'
p614
ssaa(lp615
S'leonardo'
p616
a(dp617
S'name'
p618
S'Arduino Leonardo'
p619
sS'vid'
p620
(dp621
g182
S'0x2341'
p622
sg74
S'0x2341'
p623
ssS'pid'
p624
(dp625
g182
S'0x8036'
p626
sg74
S'0x0036'
p627
ssS'upload'
p628
(dp629
S'protocol'
p630
S'avr109'
p631
sS'disable_flushing'
p632
S'true'
p633
sS'tool'
p634
S'avrdude'
p635
sS'maximum_data_size'
p636
S'2560'
p637
sS'maximum_size'
p638
S'28672'
p639
sS'use_1200bps_touch'
p640
S'true'
p641
sS'speed'
p642
S'57600'
p643
sS'wait_for_upload_port'
p644
S'true'
p645
ssS'build'
p646
(dp647
S'core'
p648
S'arduino'
p649
sS'f_cpu'
p650
S'16000000L'
p651
sS'vid'
p652
S'0x2341'
p653
sS'usb_product'
p654
S'"Arduino Leonardo"'
p655
sS'pid'
p656
S'0x8036'
p657
sS'extra_flags'
p658
S'{build.usb_flags}'
p659
sS'board'
p660
S'AVR_LEONARDO'
p661
sS'mcu'
p662
S'atmega32u4'
p663
sS'variant'
p664
S'leonardo'
p665
ssg117
S'/usr/local/share/arduino/hardware/arduino/avr'
p666
sS'bootloader'
p667
(dp668
S'extended_fuses'
p669
S'0xcb'
p670
sS'high_fuses'
p671
S'0xd8'
p672
sS'low_fuses'
p673
S'0xff'
p674
sS'lock_bits'
p675
S'0x2F'
p676
sS'tool'
p677
S'avrdude'
p678
sS'file'
p679
S'caterina/Caterina-Leonardo.hex'
p680
sS'unlock_bits'
p681
S'0x3F'
p682
ssaa(lp683
S'micro'
p684
a(dp685
S'bootloader'
p686
(dp687
S'extended_fuses'
p688
S'0xcb'
p689
sS'high_fuses'
p690
S'0xd8'
p691
sS'low_fuses'
p692
S'0xff'
p693
sS'lock_bits'
p694
S'0x2F'
p695
sS'tool'
p696
S'avrdude'
p697
sS'file'
p698
S'caterina/Caterina-Micro.hex'
p699
sS'unlock_bits'
p700
S'0x3F'
p701
ssS'upload'
p702
(dp703
S'protocol'
p704
S'avr109'
p705
sS'disable_flushing'
p706
S'true'
p707
sS'tool'
p708
S'avrdude'
p709
sS'maximum_data_size'
p710
S'2560'
p711
sS'maximum_size'
p712
S'28672'
p713
sS'use_1200bps_touch'
p714
S'true'
p715
sS'speed'
p716
S'57600'
p717
sS'wait_for_upload_port'
p718
S'true'
p719
ssS'build'
p720
(dp721
S'core'
p722
S'arduino'
p723
sS'f_cpu'
p724
S'16000000L'
p725
sS'vid'
p726
S'0x2341'
p727
sS'usb_product'
p728
S'"Arduino Micro"'
p729
sS'pid'
p730
S'0x8037'
p731
sS'extra_flags'
p732
S'{build.usb_flags}'
p733
sS'board'
p734
S'AVR_MICRO'
p735
sS'mcu'
p736
S'atmega32u4'
p737
sS'variant'
p738
S'micro'
p739
ssS'name'
p740
S'Arduino Micro'
p741
sg117
S'/usr/local/share/arduino/hardware/arduino/avr'
p742
saa(lp743
S'esplora'
p744
a(dp745
S'name'
p746
S'Arduino Esplora'
p747
sS'vid'
p748
(dp749
g182
S'0x2341'
p750
sg74
S'0x2341'
p751
ssS'pid'
p752
(dp753
g182
S'0x803c'
p754
sg74
S'0x003c'
p755
ssS'upload'
p756
(dp757
S'protocol'
p758
S'avr109'
p759
sS'disable_flushing'
p760
S'true'
p761
sS'tool'
p762
S'avrdude'
p763
sS'maximum_data_size'
p764
S'2560'
p765
sS'maximum_size'
p766
S'28672'
p767
sS'use_1200bps_touch'
p768
S'true'
p769
sS'speed'
p770
S'57600'
p771
sS'wait_for_upload_port'
p772
S'true'
p773
ssS'build'
p774
(dp775
S'core'
p776
S'arduino'
p777
sS'f_cpu'
p778
S'16000000L'
p779
sS'vid'
p780
S'0x2341'
p781
sS'usb_product'
p782
S'"Arduino Esplora"'
p783
sS'pid'
p784
S'0x803c'
p785
sS'extra_flags'
p786
S'{build.usb_flags}'
p787
sS'board'
p788
S'AVR_ESPLORA'
p789
sS'mcu'
p790
S'atmega32u4'
p791
sS'variant'
p792
S'leonardo'
p793
ssg117
S'/usr/local/share/arduino/hardware/arduino/avr'
p794
sS'bootloader'
p795
(dp796
S'extended_fuses'
p797
S'0xcb'
p798
sS'high_fuses'
p799
S'0xd8'
p800
sS'low_fuses'
p801
S'0xff'
p802
sS'lock_bits'
p803
S'0x2F'
p804
sS'tool'
p805
S'avrdude'
p806
sS'file'
p807
S'caterina/Caterina-Esplora.hex'
p808
sS'unlock_bits'
p809
S'0x3F'
p810
ssaa(lp811
S'mini'
p812
a(dp813
S'name'
p814
S'Arduino Mini'
p815
sS'menu'
p816
(dp817
S'cpu'
p818
(dp819
S'atmega168'
p820
(dp821
S'bootloader'
p822
(dp823
S'extended_fuses'
p824
S'0x00'
p825
sS'high_fuses'
p826
S'0xdd'
p827
sS'file'
p828
S'atmega/ATmegaBOOT_168_ng.hex'
p829
ssS'upload'
p830
(dp831
S'maximum_size'
p832
S'14336'
p833
sS'speed'
p834
S'19200'
p835
sS'maximum_data_size'
p836
S'1024'
p837
ssg327
S'ATmega168'
p838
sS'build'
p839
(dp840
S'mcu'
p841
S'atmega168'
p842
sssS'atmega328'
p843
(dp844
S'bootloader'
p845
(dp846
S'extended_fuses'
p847
S'0x05'
p848
sS'high_fuses'
p849
S'0xd8'
p850
sS'file'
p851
S'optiboot/optiboot_atmega328-Mini.hex'
p852
ssS'upload'
p853
(dp854
S'maximum_size'
p855
S'28672'
p856
sS'speed'
p857
S'115200'
p858
sS'maximum_data_size'
p859
S'2048'
p860
ssg327
S'ATmega328'
p861
sS'build'
p862
(dp863
S'mcu'
p864
S'atmega328p'
p865
sssssS'upload'
p866
(dp867
S'tool'
p868
S'avrdude'
p869
sS'protocol'
p870
S'arduino'
p871
ssS'build'
p872
(dp873
S'core'
p874
S'arduino'
p875
sS'f_cpu'
p876
S'16000000L'
p877
sS'board'
p878
S'AVR_MINI'
p879
sS'variant'
p880
S'eightanaloginputs'
p881
ssg117
S'/usr/local/share/arduino/hardware/arduino/avr'
p882
sS'bootloader'
p883
(dp884
S'low_fuses'
p885
S'0xff'
p886
sS'lock_bits'
p887
S'0x0F'
p888
sS'tool'
p889
S'avrdude'
p890
sS'unlock_bits'
p891
S'0x3F'
p892
ssaa(lp893
S'ethernet'
p894
a(dp895
S'bootloader'
p896
(dp897
S'extended_fuses'
p898
S'0x05'
p899
sS'high_fuses'
p900
S'0xde'
p901
sS'low_fuses'
p902
S'0xff'
p903
sS'lock_bits'
p904
S'0x0F'
p905
sS'tool'
p906
S'avrdude'
p907
sS'file'
p908
S'optiboot/optiboot_atmega328.hex'
p909
sS'unlock_bits'
p910
S'0x3F'
p911
ssS'upload'
p912
(dp913
S'speed'
p914
S'115200'
p915
sS'tool'
p916
S'avrdude'
p917
sS'protocol'
p918
S'arduino'
p919
sS'maximum_size'
p920
S'32256'
p921
sS'maximum_data_size'
p922
S'2048'
p923
ssS'build'
p924
(dp925
S'f_cpu'
p926
S'16000000L'
p927
sS'mcu'
p928
S'atmega328p'
p929
sS'variant'
p930
S'ethernet'
p931
sS'board'
p932
S'AVR_ETHERNET'
p933
sS'core'
p934
S'arduino'
p935
ssS'name'
p936
S'Arduino Ethernet'
p937
sg117
S'/usr/local/share/arduino/hardware/arduino/avr'
p938
saa(lp939
S'fio'
p940
a(dp941
S'bootloader'
p942
(dp943
S'extended_fuses'
p944
S'0x05'
p945
sS'high_fuses'
p946
S'0xDA'
p947
sS'low_fuses'
p948
S'0xFF'
p949
sS'lock_bits'
p950
S'0x0F'
p951
sS'tool'
p952
S'avrdude'
p953
sS'file'
p954
S'atmega/ATmegaBOOT_168_atmega328_pro_8MHz.hex'
p955
sS'unlock_bits'
p956
S'0x3F'
p957
ssS'upload'
p958
(dp959
S'speed'
p960
S'57600'
p961
sS'tool'
p962
S'avrdude'
p963
sS'protocol'
p964
S'arduino'
p965
sS'maximum_size'
p966
S'30720'
p967
sS'maximum_data_size'
p968
S'2048'
p969
ssS'build'
p970
(dp971
S'core'
p972
S'arduino'
p973
sS'mcu'
p974
S'atmega328p'
p975
sS'f_cpu'
p976
S'8000000L'
p977
sS'board'
p978
S'AVR_FIO'
p979
sS'variant'
p980
S'eightanaloginputs'
p981
ssS'name'
p982
S'Arduino Fio'
p983
sg117
S'/usr/local/share/arduino/hardware/arduino/avr'
p984
saa(lp985
S'bt'
p986
a(dp987
S'name'
p988
S'Arduino BT'
p989
sS'menu'
p990
(dp991
S'cpu'
p992
(dp993
S'atmega168'
p994
(dp995
S'bootloader'
p996
(dp997
S'extended_fuses'
p998
S'0x00'
p999
sS'high_fuses'
p1000
S'0xdd'
p1001
sS'file'
p1002
S'bt/ATmegaBOOT_168.hex'
p1003
ssS'upload'
p1004
(dp1005
S'maximum_size'
p1006
S'14336'
p1007
sS'maximum_data_size'
p1008
S'1024'
p1009
ssg327
S'ATmega168'
p1010
sS'build'
p1011
(dp1012
S'mcu'
p1013
S'atmega168'
p1014
sssS'atmega328'
p1015
(dp1016
S'bootloader'
p1017
(dp1018
S'extended_fuses'
p1019
S'0x05'
p1020
sS'high_fuses'
p1021
S'0xd8'
p1022
sS'file'
p1023
S'bt/ATmegaBOOT_168_atmega328_bt.hex'
p1024
ssS'upload'
p1025
(dp1026
S'maximum_size'
p1027
S'28672'
p1028
sS'maximum_data_size'
p1029
S'2048'
p1030
ssg327
S'ATmega328'
p1031
sS'build'
p1032
(dp1033
S'mcu'
p1034
S'atmega328p'
p1035
sssssS'upload'
p1036
(dp1037
S'speed'
p1038
S'19200'
p1039
sS'tool'
p1040
S'avrdude'
p1041
sS'protocol'
p1042
S'arduino'
p1043
sS'disable_flushing'
p1044
S'true'
p1045
ssS'build'
p1046
(dp1047
S'core'
p1048
S'arduino'
p1049
sS'f_cpu'
p1050
S'16000000L'
p1051
sS'board'
p1052
S'AVR_BT'
p1053
sS'variant'
p1054
S'eightanaloginputs'
p1055
ssg117
S'/usr/local/share/arduino/hardware/arduino/avr'
p1056
sS'bootloader'
p1057
(dp1058
S'low_fuses'
p1059
S'0xff'
p1060
sS'lock_bits'
p1061
S'0x0F'
p1062
sS'tool'
p1063
S'avrdude'
p1064
sS'unlock_bits'
p1065
S'0x3F'
p1066
ssaa(lp1067
S'LilyPadUSB'
p1068
a(dp1069
S'bootloader'
p1070
(dp1071
S'extended_fuses'
p1072
S'0xce'
p1073
sS'high_fuses'
p1074
S'0xd8'
p1075
sS'low_fuses'
p1076
S'0xff'
p1077
sS'lock_bits'
p1078
S'0x2F'
p1079
sS'tool'
p1080
S'avrdude'
p1081
sS'file'
p1082
S'caterina-LilyPadUSB/Caterina-LilyPadUSB.hex'
p1083
sS'unlock_bits'
p1084
S'0x3F'
p1085
ssS'upload'
p1086
(dp1087
S'protocol'
p1088
S'avr109'
p1089
sS'disable_flushing'
p1090
S'true'
p1091
sS'tool'
p1092
S'avrdude'
p1093
sS'maximum_data_size'
p1094
S'2560'
p1095
sS'maximum_size'
p1096
S'28672'
p1097
sS'use_1200bps_touch'
p1098
S'true'
p1099
sS'speed'
p1100
S'57600'
p1101
sS'wait_for_upload_port'
p1102
S'true'
p1103
ssS'build'
p1104
(dp1105
S'core'
p1106
S'arduino'
p1107
sS'f_cpu'
p1108
S'8000000L'
p1109
sS'vid'
p1110
S'0x1B4F'
p1111
sS'usb_product'
p1112
S'"LilyPad USB"'
p1113
sS'pid'
p1114
S'0x9208'
p1115
sS'extra_flags'
p1116
S'{build.usb_flags}'
p1117
sS'board'
p1118
S'AVR_LILYPAD_USB'
p1119
sS'mcu'
p1120
S'atmega32u4'
p1121
sS'variant'
p1122
S'leonardo'
p1123
ssS'name'
p1124
S'LilyPad Arduino USB'
p1125
sg117
S'/usr/local/share/arduino/hardware/arduino/avr'
p1126
saa(lp1127
S'lilypad'
p1128
a(dp1129
S'name'
p1130
S'LilyPad Arduino'
p1131
sS'menu'
p1132
(dp1133
S'cpu'
p1134
(dp1135
S'atmega168'
p1136
(dp1137
S'bootloader'
p1138
(dp1139
S'low_fuses'
p1140
S'0xe2'
p1141
sS'extended_fuses'
p1142
S'0x00'
p1143
sS'high_fuses'
p1144
S'0xdd'
p1145
sS'file'
p1146
S'lilypad/LilyPadBOOT_168.hex'
p1147
ssS'upload'
p1148
(dp1149
S'maximum_size'
p1150
S'14336'
p1151
sS'speed'
p1152
S'19200'
p1153
sS'maximum_data_size'
p1154
S'1024'
p1155
ssg327
S'ATmega168'
p1156
sS'build'
p1157
(dp1158
S'mcu'
p1159
S'atmega168'
p1160
sssS'atmega328'
p1161
(dp1162
S'bootloader'
p1163
(dp1164
S'low_fuses'
p1165
S'0xFF'
p1166
sS'extended_fuses'
p1167
S'0x05'
p1168
sS'high_fuses'
p1169
S'0xDA'
p1170
sS'file'
p1171
S'atmega/ATmegaBOOT_168_atmega328_pro_8MHz.hex'
p1172
ssS'upload'
p1173
(dp1174
S'maximum_size'
p1175
S'30720'
p1176
sS'speed'
p1177
S'57600'
p1178
sS'maximum_data_size'
p1179
S'2048'
p1180
ssg327
S'ATmega328'
p1181
sS'build'
p1182
(dp1183
S'mcu'
p1184
S'atmega328p'
p1185
sssssS'upload'
p1186
(dp1187
S'tool'
p1188
S'avrdude'
p1189
sS'protocol'
p1190
S'arduino'
p1191
ssS'build'
p1192
(dp1193
S'core'
p1194
S'arduino'
p1195
sS'f_cpu'
p1196
S'8000000L'
p1197
sS'board'
p1198
S'AVR_LILYPAD'
p1199
sS'variant'
p1200
S'standard'
p1201
ssg117
S'/usr/local/share/arduino/hardware/arduino/avr'
p1202
sS'bootloader'
p1203
(dp1204
S'lock_bits'
p1205
S'0x0F'
p1206
sS'tool'
p1207
S'avrdude'
p1208
sS'unlock_bits'
p1209
S'0x3F'
p1210
ssaa(lp1211
S'pro'
p1212
a(dp1213
S'name'
p1214
S'Arduino Pro or Pro Mini'
p1215
sS'menu'
p1216
(dp1217
S'cpu'
p1218
(dp1219
S'16MHzatmega328'
p1220
(dp1221
S'bootloader'
p1222
(dp1223
S'low_fuses'
p1224
S'0xFF'
p1225
sS'extended_fuses'
p1226
S'0x05'
p1227
sS'high_fuses'
p1228
S'0xDA'
p1229
sS'file'
p1230
S'atmega/ATmegaBOOT_168_atmega328.hex'
p1231
ssS'upload'
p1232
(dp1233
S'maximum_size'
p1234
S'30720'
p1235
sS'speed'
p1236
S'57600'
p1237
sS'maximum_data_size'
p1238
S'2048'
p1239
ssg327
S'ATmega328 (5V, 16 MHz)'
p1240
sS'build'
p1241
(dp1242
S'mcu'
p1243
S'atmega328p'
p1244
sS'f_cpu'
p1245
S'16000000L'
p1246
sssS'8MHzatmega328'
p1247
(dp1248
S'bootloader'
p1249
(dp1250
S'low_fuses'
p1251
S'0xFF'
p1252
sS'extended_fuses'
p1253
S'0x05'
p1254
sS'high_fuses'
p1255
S'0xDA'
p1256
sS'file'
p1257
S'atmega/ATmegaBOOT_168_atmega328_pro_8MHz.hex'
p1258
ssS'upload'
p1259
(dp1260
S'maximum_size'
p1261
S'30720'
p1262
sS'speed'
p1263
S'57600'
p1264
sS'maximum_data_size'
p1265
S'2048'
p1266
ssg327
S'ATmega328 (3.3V, 8 MHz)'
p1267
sS'build'
p1268
(dp1269
S'mcu'
p1270
S'atmega328p'
p1271
sS'f_cpu'
p1272
S'8000000L'
p1273
sssS'8MHzatmega168'
p1274
(dp1275
S'bootloader'
p1276
(dp1277
S'low_fuses'
p1278
S'0xc6'
p1279
sS'extended_fuses'
p1280
S'0x00'
p1281
sS'high_fuses'
p1282
S'0xdd'
p1283
sS'file'
p1284
S'atmega/ATmegaBOOT_168_pro_8MHz.hex'
p1285
ssS'upload'
p1286
(dp1287
S'maximum_size'
p1288
S'14336'
p1289
sS'speed'
p1290
S'19200'
p1291
sS'maximum_data_size'
p1292
S'1024'
p1293
ssg327
S'ATmega168 (3.3V, 8 MHz)'
p1294
sS'build'
p1295
(dp1296
S'mcu'
p1297
S'atmega168'
p1298
sS'f_cpu'
p1299
S'8000000L'
p1300
sssS'16MHzatmega168'
p1301
(dp1302
S'bootloader'
p1303
(dp1304
S'low_fuses'
p1305
S'0xff'
p1306
sS'extended_fuses'
p1307
S'0x00'
p1308
sS'high_fuses'
p1309
S'0xdd'
p1310
sS'file'
p1311
S'atmega/ATmegaBOOT_168_diecimila.hex'
p1312
ssS'upload'
p1313
(dp1314
S'maximum_size'
p1315
S'14336'
p1316
sS'speed'
p1317
S'19200'
p1318
sS'maximum_data_size'
p1319
S'1024'
p1320
ssg327
S'ATmega168 (5V, 16 MHz)'
p1321
sS'build'
p1322
(dp1323
S'mcu'
p1324
S'atmega168'
p1325
sS'f_cpu'
p1326
S'16000000L'
p1327
sssssS'upload'
p1328
(dp1329
S'tool'
p1330
S'avrdude'
p1331
sS'protocol'
p1332
S'arduino'
p1333
ssS'build'
p1334
(dp1335
S'core'
p1336
S'arduino'
p1337
sS'variant'
p1338
S'eightanaloginputs'
p1339
sS'board'
p1340
S'AVR_PRO'
p1341
ssg117
S'/usr/local/share/arduino/hardware/arduino/avr'
p1342
sS'bootloader'
p1343
(dp1344
S'lock_bits'
p1345
S'0x0F'
p1346
sS'tool'
p1347
S'avrdude'
p1348
sS'unlock_bits'
p1349
S'0x3F'
p1350
ssaa(lp1351
S'atmegang'
p1352
a(dp1353
S'name'
p1354
S'Arduino NG or older'
p1355
sS'menu'
p1356
(dp1357
S'cpu'
p1358
(dp1359
S'atmega168'
p1360
(dp1361
S'bootloader'
p1362
(dp1363
S'low_fuses'
p1364
S'0xff'
p1365
sS'extended_fuses'
p1366
S'0x00'
p1367
sS'high_fuses'
p1368
S'0xdd'
p1369
sS'file'
p1370
S'atmega/ATmegaBOOT_168_ng.hex'
p1371
ssS'upload'
p1372
(dp1373
S'maximum_size'
p1374
S'14336'
p1375
sS'maximum_data_size'
p1376
S'1024'
p1377
ssg327
S'ATmega168'
p1378
sS'build'
p1379
(dp1380
S'mcu'
p1381
S'atmega168'
p1382
sssS'atmega8'
p1383
(dp1384
S'bootloader'
p1385
(dp1386
S'low_fuses'
p1387
S'0xdf'
p1388
sS'high_fuses'
p1389
S'0xca'
p1390
sS'file'
p1391
S'atmega8/ATmegaBOOT-prod-firmware-2009-11-07.hex'
p1392
ssS'upload'
p1393
(dp1394
S'maximum_size'
p1395
S'7168'
p1396
sS'maximum_data_size'
p1397
S'1024'
p1398
ssg327
S'ATmega8'
p1399
sS'build'
p1400
(dp1401
S'mcu'
p1402
S'atmega8'
p1403
sssssS'upload'
p1404
(dp1405
S'speed'
p1406
S'19200'
p1407
sS'tool'
p1408
S'avrdude'
p1409
sS'protocol'
p1410
S'arduino'
p1411
ssS'build'
p1412
(dp1413
S'core'
p1414
S'arduino'
p1415
sS'mcu'
p1416
S'atmegang'
p1417
sS'f_cpu'
p1418
S'16000000L'
p1419
sS'board'
p1420
S'AVR_NG'
p1421
sS'variant'
p1422
S'standard'
p1423
ssg117
S'/usr/local/share/arduino/hardware/arduino/avr'
p1424
sS'bootloader'
p1425
(dp1426
S'lock_bits'
p1427
S'0x0F'
p1428
sS'tool'
p1429
S'avrdude'
p1430
sS'unlock_bits'
p1431
S'0x3F'
p1432
ssaa(lp1433
S'robotControl'
p1434
a(dp1435
S'bootloader'
p1436
(dp1437
S'extended_fuses'
p1438
S'0xcb'
p1439
sS'high_fuses'
p1440
S'0xd8'
p1441
sS'low_fuses'
p1442
S'0xff'
p1443
sS'lock_bits'
p1444
S'0x2F'
p1445
sS'tool'
p1446
S'avrdude'
p1447
sS'file'
p1448
S'caterina-Arduino_Robot/Caterina-Robot-Control.hex'
p1449
sS'unlock_bits'
p1450
S'0x3F'
p1451
ssS'upload'
p1452
(dp1453
S'protocol'
p1454
S'avr109'
p1455
sS'disable_flushing'
p1456
S'true'
p1457
sS'tool'
p1458
S'avrdude'
p1459
sS'maximum_data_size'
p1460
S'2560'
p1461
sS'maximum_size'
p1462
S'28672'
p1463
sS'use_1200bps_touch'
p1464
S'true'
p1465
sS'speed'
p1466
S'57600'
p1467
sS'wait_for_upload_port'
p1468
S'true'
p1469
ssS'build'
p1470
(dp1471
S'core'
p1472
S'arduino'
p1473
sS'f_cpu'
p1474
S'16000000L'
p1475
sS'vid'
p1476
S'0x2341'
p1477
sS'usb_product'
p1478
S'"Robot Control"'
p1479
sS'pid'
p1480
S'0x8038'
p1481
sS'extra_flags'
p1482
S'{build.usb_flags}'
p1483
sS'board'
p1484
S'AVR_ROBOT_CONTROL'
p1485
sS'mcu'
p1486
S'atmega32u4'
p1487
sS'variant'
p1488
S'robot_control'
p1489
ssS'name'
p1490
S'Arduino Robot Control'
p1491
sg117
S'/usr/local/share/arduino/hardware/arduino/avr'
p1492
saa(lp1493
S'robotMotor'
p1494
a(dp1495
S'bootloader'
p1496
(dp1497
S'extended_fuses'
p1498
S'0xcb'
p1499
sS'high_fuses'
p1500
S'0xd8'
p1501
sS'low_fuses'
p1502
S'0xff'
p1503
sS'lock_bits'
p1504
S'0x2F'
p1505
sS'tool'
p1506
S'avrdude'
p1507
sS'file'
p1508
S'caterina-Arduino_Robot/Caterina-Robot-Motor.hex'
p1509
sS'unlock_bits'
p1510
S'0x3F'
p1511
ssS'upload'
p1512
(dp1513
S'protocol'
p1514
S'avr109'
p1515
sS'disable_flushing'
p1516
S'true'
p1517
sS'tool'
p1518
S'avrdude'
p1519
sS'maximum_data_size'
p1520
S'2560'
p1521
sS'maximum_size'
p1522
S'28672'
p1523
sS'use_1200bps_touch'
p1524
S'true'
p1525
sS'speed'
p1526
S'57600'
p1527
sS'wait_for_upload_port'
p1528
S'true'
p1529
ssS'build'
p1530
(dp1531
S'core'
p1532
S'arduino'
p1533
sS'f_cpu'
p1534
S'16000000L'
p1535
sS'vid'
p1536
S'0x2341'
p1537
sS'usb_product'
p1538
S'"Robot Motor"'
p1539
sS'pid'
p1540
S'0x8039'
p1541
sS'extra_flags'
p1542
S'{build.usb_flags}'
p1543
sS'board'
p1544
S'AVR_ROBOT_MOTOR'
p1545
sS'mcu'
p1546
S'atmega32u4'
p1547
sS'variant'
p1548
S'robot_motor'
p1549
ssS'name'
p1550
S'Arduino Robot Motor'
p1551
sg117
S'/usr/local/share/arduino/hardware/arduino/avr'
p1552
saatp1553
Rp1554
(dp1555
S'default'
p1556
S'uno'
p1557
sbtp1558
a(S'used_libs'
p1559
(lp1560
S'lib/Adafruit_TFTLCD'
p1561
aS'lib/TouchScreen'
p1562
aS'lib/Adafruit-GFX'
p1563
aS'/usr/local/share/arduino/hardware/arduino/avr/cores/arduino'
p1564
atp1565
a(S'make'
p1566
S'/usr/bin/make'
p1567
tp1568
a(S'arduino_libraries_dir'
p1569
S'/usr/local/share/arduino/libraries'
p1570
tp1571
a(S'cc'
p1572
S'/usr/local/share/arduino/hardware/tools/avr/bin/avr-gcc'
p1573
tp1574
a(S'cflags'
p1575
g2
(g3
g4
(lp1576
tp1577
Rp1578
tp1579
a(S'cxxflags'
p1580
g2
(g3
g4
(lp1581
S'-fno-exceptions'
p1582
atp1583
Rp1584
tp1585
a(S'arduino_variants_dir'
p1586
S'/usr/local/share/arduino/hardware/arduino/avr/variants'
p1587
tp1588
a(S'serial'
p1589
S'/usr/bin/picocom'
p1590
tp1591
a(S'stty'
p1592
S'/bin/stty'
p1593
tp1594
a(S'version.txt'
p1595
S'/usr/local/share/arduino/lib/version.txt'
p1596
tp1597
a(S'arduino_core_dir'
p1598
g1564
tp1599
a(S'boards.txt'
p1600
(lp1601
S'/usr/local/share/arduino/hardware/arduino/sam/boards.txt'
p1602
aS'/usr/local/share/arduino/hardware/arduino/avr/boards.txt'
p1603
atp1604
a(S'avrdude.conf'
p1605
S'/usr/local/share/arduino/hardware/tools/avr/etc/avrdude.conf'
p1606
tp1607
a(g42
g2
(g3
g4
(lp1608
S'.build/uno/src/dependencies.d'
p1609
aS'.build/uno/Adafruit_TFTLCD/dependencies.d'
p1610
aS'.build/uno/Adafruit-GFX/dependencies.d'
p1611
aS'.build/uno/TouchScreen/dependencies.d'
p1612
aS'.build/uno/arduino/dependencies.d'
p1613
atp1614
Rp1615
tp1616
a.